(dp0
S'resolved.i'
p1
I1885
sS'walk-in'
p2
I3596
sS'kickstart'
p3
I3094
sS'd\xc3\xada'
p4
I1156
sS'adviced'
p5
I415
sS'100.7'
p6
I3593
sS'child'
p7
I2551
sS'yellow'
p8
I2242
sS'everybody'
p9
I1945
sS'four'
p10
I455
sS'sleep'
p11
I453
sS'asian'
p12
I3766
sS'suffring'
p13
I1814
sS'hanging'
p14
I1739
sS'120'
p15
I2331
sS'appetite'
p16
I607
sS'tonsillar'
p17
I1721
sS'hate'
p18
I776
sS'request'
p19
I3717
sS'klebsiella'
p20
I886
sS'looking'
p21
I3487
sS'becoly'
p22
I1999
sS'swab'
p23
I2911
sS'segments'
p24
I1895
sS'tickle'
p25
I1640
sS'229e'
p26
I1377
sS'zofia'
p27
I2740
sS'trousers'
p28
I630
sS'lord'
p29
I2183
sS'sorry'
p30
I2932
sS'worth'
p31
I3098
sS'ibuprufen'
p32
I2641
sS'asthamatic'
p33
I969
sS'lack'
p34
I1803
sS'risk'
p35
I1193
sS'barium'
p36
I2410
sS'nodules'
p37
I2588
sS'assignment.i'
p38
I3467
sS'nodule'
p39
I3542
sS'every'
p40
I92
sS'albut'
p41
I3690
sS'affect'
p42
I1422
sS'tr-k'
p43
I3534
sS'anemic'
p44
I1430
sS'special'
p45
I3228
sS'neus'
p46
I1272
sS'school'
p47
I456
sS'internally'
p48
I764
sS'infectado'
p49
I1179
sS'pulmanologist'
p50
I1257
sS'companies'
p51
I722
sS'solution'
p52
I520
sS'humidity'
p53
I1753
sS'feeling.a'
p54
I3673
sS'urinating'
p55
I2626
sS'flutters'
p56
I1958
sS'48'
p57
I3381
sS'875-125'
p58
I3536
sS'shows'
p59
I1759
sS'mauritius'
p60
I1381
sS'asymptomatic'
p61
I3701
sS'clothes'
p62
I3408
sS'enjoy'
p63
I818
sS'throught'
p64
I2464
sS'tired'
p65
I33
sS'guidelines'
p66
I552
sS'direct'
p67
I646
sS'pulse'
p68
I2014
sS'second'
p69
I324
sS'attended'
p70
I3116
sS'7th'
p71
I3044
sS'axetil'
p72
I1800
sS'n'
p73
I45
sS'even'
p74
I811
sS'army'
p75
I2445
sS'wreck'
p76
I1207
sS'saved'
p77
I1666
sS'+'
p78
I55
sS'cooking'
p79
I1828
sS'fingers'
p80
I1702
sS'hazy'
p81
I3501
sS'spiked'
p82
I3531
sS'above'
p83
I626
sS'dr.'
p84
I717
sS'new'
p85
I838
sS'tips'
p86
I2559
sS'increasing'
p87
I2675
sS'ever'
p88
I422
sS'told'
p89
I105
sS'injections'
p90
I833
sS'med'
p91
I942
sS'healthily'
p92
I3406
sS'type_2_diabetes'
p93
I3814
sS'shocked'
p94
I3001
sS'never'
p95
I1108
sS'here'
p96
I1023
sS'met'
p97
I727
sS'protection'
p98
I883
sS'aid'
p99
I3682
sS'102'
p100
I1569
sS'103'
p101
I1570
sS'shortness'
p102
I326
sS'101'
p103
I1568
sS'paining'
p104
I1617
sS'dry'
p105
I177
sS'remotely'
p106
I3191
sS'kids'
p107
I2222
sS'daughter'
p108
I1032
sS'nebuliser'
p109
I3441
sS'changed'
p110
I3389
sS'approaches'
p111
I2653
sS'reports'
p112
I2281
sS'smoke'
p113
I140
sS'military'
p114
I3639
sS'theres'
p115
I2100
sS'changes'
p116
I1892
sS'curable'
p117
I3277
sS'explained'
p118
I1110
sS'back/lung'
p119
I1964
sS'disprin'
p120
I502
sS'visible'
p121
I762
sS'total'
p122
I1916
sS'u'
p123
I194
sS'nurofen'
p124
I3160
sS'laryngeal'
p125
I3706
sS'12:10'
p126
I2338
sS'ranchi'
p127
I2023
sS'would'
p128
I370
sS'wbc'
p129
I1628
sS'hospital'
p130
I594
sS'mortality'
p131
I2439
sS'negative'
p132
I1119
sS'covid19'
p133
I932
sS'inevitable'
p134
I3295
sS'call'
p135
I983
sS'calm'
p136
I2348
sS'recommend'
p137
I477
sS'survive'
p138
I1440
sS'fainting'
p139
I2317
sS'25th'
p140
I2923
sS'type'
p141
I660
sS'tell'
p142
I186
sS'breathe'
p143
I1017
sS'98.0'
p144
I1984
sS'lungs'
p145
I1007
sS'chronic_obstructive_pulmonary_disease'
p146
I3812
sS'brings'
p147
I775
sS'expose'
p148
I1227
sS'under'
p149
I940
sS'infusion'
p150
I1726
sS'aware'
p151
I1142
sS'99'
p152
I1249
sS'glass'
p153
I1901
sS'warm'
p154
I1686
sS'arms'
p155
I2253
sS'prescription'
p156
I1549
sS'90'
p157
I367
sS'hold'
p158
I3223
sS'95'
p159
I1627
sS'benedryl'
p160
I912
sS'97'
p161
I2800
sS'must'
p162
I1346
sS'me'
p163
I166
sS'md'
p164
I645
sS'mg'
p165
I2124
sS'flora'
p166
I1562
sS'ma'
p167
I3301
sS'room'
p168
I1656
sS'hospital.thank'
p169
I1261
sS'skipping'
p170
I2862
sS'ml'
p171
I3435
sS'work'
p172
I457
sS'chest_pain'
p173
I3802
sS'diagnoised'
p174
I575
sS'roof'
p175
I228
sS'm.s.'
p176
I1301
sS'pharm'
p177
I721
sS'temperatures'
p178
I1439
sS'ms'
p179
I2951
sS'suppository'
p180
I3163
sS'experts'
p181
I3790
sS'original'
p182
I2920
sS'my'
p183
I72
sS'example'
p184
I3452
sS'degrees.'
p185
I3052
sS'loosen'
p186
I1586
sS'estate'
p187
I2849
sS'give'
p188
I165
sS'household'
p189
I2547
sS'eczema'
p190
I2531
sS'india'
p191
I3216
sS'stressing'
p192
I3238
sS'honey'
p193
I2286
sS'indicates'
p194
I2765
sS'foods'
p195
I2293
sS'liter'
p196
I2832
sS'veggies'
p197
I2365
sS'want'
p198
I296
sS'mohan'
p199
I973
sS'keep'
p200
I2131
sS'cushing'
p201
I688
sS'returned'
p202
I536
sS'sats'
p203
I2833
sS'end'
p204
I1852
sS'recovery'
p205
I1482
sS'thing'
p206
I1761
sS'complaining'
p207
I585
sS'travel'
p208
I254
sS'reoccurance'
p209
I360
sS'colds'
p210
I3401
sS'damage'
p211
I3583
sS'preemie-grad'
p212
I769
sS'how'
p213
I321
sS'hot'
p214
I1324
sS'enquire'
p215
I3193
sS'disappear'
p216
I407
sS'aching'
p217
I1615
sS'answer'
p218
I1021
sS'parangities'
p219
I2872
sS'pizza'
p220
I2389
sS'badly'
p221
I850
sS'untill'
p222
I2129
sS'fever'
p223
I30
sS'after'
p224
I363
sS'containing'
p225
I3679
sS'lab'
p226
I1914
sS'cauterisation'
p227
I2557
sS'folic'
p228
I2607
sS'wrong'
p229
I1330
sS'ibuprofin'
p230
I2671
sS'arch'
p231
I3046
sS'las'
p232
I1176
sS'directors'
p233
I3012
sS'repeats'
p234
I2238
sS'attempt'
p235
I925
sS'choking'
p236
I3124
sS'effective'
p237
I802
sS'appreciate'
p238
I2367
sS'childhood'
p239
I670
sS'cigarettes'
p240
I348
sS'france.and'
p241
I2868
sS'18th'
p242
I2922
sS'trtmt'
p243
I900
sS'ultimate'
p244
I1561
sS'keeps'
p245
I590
sS'symtoms'
p246
I3057
sS'order'
p247
I3260
sS'non-smoker'
p248
I3398
sS'office'
p249
I1018
sS'consent'
p250
I1442
sS'over'
p251
I244
sS'sure.thank'
p252
I3156
sS'inconclusive'
p253
I3493
sS'afib'
p254
I2232
sS'miscarry'
p255
I1209
sS'levofloxaxin'
p256
I3314
sS'before'
p257
I333
sS'pendemic'
p258
I2460
sS'difference'
p259
I3284
sS'rhinits'
p260
I414
sS'625'
p261
I514
sS'fit'
p262
I3400
sS'cld'
p263
I967
sS','
p264
I31
sS'stopover'
p265
I2975
sS'sprays'
p266
I119
sS'persist'
p267
I509
sS'weeks'
p268
I83
sS'anemia'
p269
I3263
sS'easier'
p270
I2834
sS'versus'
p271
I3451
sS'then'
p272
I521
sS'them'
p273
I1528
sS'iowa'
p274
I1772
sS'diseases'
p275
I317
sS'combination'
p276
I3029
sS'weakness'
p277
I2471
sS'adco-metrondaz'
p278
I3422
sS'safe'
p279
I371
sS'bouts'
p280
I1015
sS'runny'
p281
I178
sS'break'
p282
I1734
sS'bang'
p283
I1283
sS'effects'
p284
I3581
sS'they'
p285
I122
sS'listerine'
p286
I1683
sS'bronchial'
p287
I1897
sS'ablations'
p288
I2229
sS'silver'
p289
I927
sS'bread'
p290
I2382
sS'bony'
p291
I3508
sS'netherlands'
p292
I1286
sS'probiotic'
p293
I1563
sS'oxygen'
p294
I2007
sS'reasonably'
p295
I3399
sS'l'
p296
I549
sS'fibrosis'
p297
I3477
sS'filling'
p298
I1663
sS'coronavirus'
p299
I61
sS'thing.after'
p300
I2423
sS'each'
p301
I1769
sS'plasmaquine'
p302
I2121
sS'went'
p303
I290
sS'interfering'
p304
I2809
sS'side'
p305
I806
sS'bone'
p306
I1048
sS'mean'
p307
I1641
sS'mucolite'
p308
I3439
sS'tiny2882@comcat,net'
p309
I2205
sS'upload'
p310
I546
sS'contracting'
p311
I2546
sS'waiste'
p312
I1970
sS'27c'
p313
I3693
sS'impossible'
p314
I3497
sS'laboratory'
p315
I2853
sS'grandfather'
p316
I3017
sS'saturday'
p317
I1348
sS'rt'
p318
I2826
sS'by'
p319
I106
sS'drove'
p320
I3482
sS'fevers'
p321
I1691
sS'god'
p322
I3224
sS'specialist'
p323
I1657
sS'tonsil'
p324
I1737
sS'sms'
p325
I2668
sS'tolerated'
p326
I3110
sS're'
p327
I2716
sS'rf'
p328
I2228
sS'ra'
p329
I682
sS'medicine'
p330
I116
sS'got'
p331
I603
sS'nebulized'
p332
I3658
sS'tingling'
p333
I2142
sS'sept.'
p334
I3489
sS'turning'
p335
I2767
sS'linear'
p336
I3084
sS'resume'
p337
I3328
sS'given'
p338
I672
sS'free'
p339
I1433
sS'240'
p340
I2154
sS'dr.mahashur'
p341
I2955
sS'wanted'
p342
I1262
sS'repeat'
p343
I3190
sS'thwe'
p344
I3781
sS'ate'
p345
I2252
sS'exposing'
p346
I2634
sS'recovering'
p347
I1653
sS'starts'
p348
I1097
sS'diabetic'
p349
I970
sS'days'
p350
I148
sS'robitussin'
p351
I965
sS'filter'
p352
I1382
sS'flown'
p353
I3458
sS'soda'
p354
I2390
sS'moving'
p355
I2336
sS'landlords'
p356
I1715
sS'rang'
p357
I3240
sS'already'
p358
I410
sS'steroids'
p359
I673
sS'grade'
p360
I1139
sS'primary'
p361
I437
sS'wash'
p362
I2722
sS'douglasville'
p363
I3197
sS'deplete'
p364
I3050
sS'another'
p365
I924
sS'10fr'
p366
I2429
sS'feb.'
p367
I1098
sS'epiglottis'
p368
I3577
sS'non-heart'
p369
I3321
sS'activities'
p370
I3138
sS'ammoxycilin'
p371
I3568
sS'29th'
p372
I2312
sS'approximately'
p373
I1848
sS'needed'
p374
I1395
sS'too'
p375
I1075
sS'legs'
p376
I2600
sS'2year'
p377
I174
sS'ranging'
p378
I1981
sS'damaging'
p379
I3322
sS'listen'
p380
I2195
sS'growth'
p381
I2678
sS'thoracic'
p382
I3509
sS'injury.came'
p383
I2685
sS'took'
p384
I1554
sS'someon'
p385
I2751
sS'wisdom'
p386
I3177
sS'somewhat'
p387
I1618
sS'shortly'
p388
I2333
sS'travelled'
p389
I1347
sS'symptom'
p390
I1218
sS'distance'
p391
I1212
sS'pneumonis'
p392
I971
sS'target'
p393
I3148
sS'showed'
p394
I1080
sS'cre/resistant'
p395
I885
sS'bloated'
p396
I1405
sS'likely'
p397
I322
sS'99.1'
p398
I3291
sS'shower'
p399
I3409
sS'pneumonia'
p400
I110
sS'5mg'
p401
I2160
sS'silly'
p402
I3407
sS'1o'
p403
I2492
sS'iron'
p404
I567
sS'5ml'
p405
I3159
sS'hacking'
p406
I2785
sS'feeling'
p407
I162
sS'corno'
p408
I2978
sS'lbs'
p409
I669
sS'cheek'
p410
I3181
sS'seer'
p411
I2503
sS'septicemia'
p412
I1998
sS'bronchitis'
p413
I671
sS'ran'
p414
I2069
sS'clindamyacin'
p415
I1842
sS'presciption'
p416
I855
sS'mind'
p417
I852
sS'mine'
p418
I3100
sS'98'
p419
I2157
sS'smoker'
p420
I1531
sS'talking'
p421
I182
sS'stomach'
p422
I1141
sS'seem'
p423
I128
sS'sounding'
p424
I1293
sS'seek'
p425
I490
sS'tells'
p426
I2764
sS'ray'
p427
I1304
sS'strength'
p428
I2513
sS'histamines'
p429
I417
sS'paramedics'
p430
I1665
sS'responsible'
p431
I842
sS'-'
p432
I694
sS'isolated'
p433
I2213
sS'longer_than_2_weeks'
p434
I3806
sS'13-16'
p435
I3735
sS'chest'
p436
I35
sS'causing'
p437
I1659
sS'ingrown'
p438
I3230
sS'appetitie'
p439
I3758
sS'pneomonia'
p440
I3488
sS'transmit'
p441
I1784
sS'creatures'
p442
I3169
sS'circles'
p443
I939
sS'maligant'
p444
I1823
sS'ritonavir'
p445
I2795
sS'wrists'
p446
I3775
sS'though'
p447
I526
sS'glands'
p448
I2660
sS'trought'
p449
I2730
sS'cifran'
p450
I3571
sS'victoria'
p451
I2892
sS'regular'
p452
I2907
sS'mouth'
p453
I229
sS'ensure'
p454
I2097
sS'letter'
p455
I3114
sS'assessed'
p456
I278
sS'100.1'
p457
I2687
sS'jean'
p458
I2475
sS'unknowingly'
p459
I2048
sS'zealand'
p460
I3643
sS'singer'
p461
I3665
sS'don'
p462
I1260
sS'treats'
p463
I848
sS'nostrils'
p464
I1063
sS'doc'
p465
I1583
sS'alarm'
p466
I1295
sS'm'
p467
I197
sS'dog'
p468
I392
sS'breathes'
p469
I1968
sS'spend'
p470
I2710
sS'definitely'
p471
I1679
sS'aunt'
p472
I3626
sS'deeply'
p473
I3288
sS'dos'
p474
I1161
sS'boyfriends'
p475
I1019
sS'came'
p476
I766
sS'20-30'
p477
I2355
sS'saying'
p478
I3791
sS'fungal'
p479
I3249
sS'contacted'
p480
I719
sS'22yr'
p481
I3511
sS'meetings'
p482
I3697
sS'random'
p483
I153
sS'xl'
p484
I301
sS'7march'
p485
I599
sS'7.5'
p486
I2123
sS'subtle'
p487
I334
sS'irbesartan'
p488
I3608
sS'busy'
p489
I3131
sS'spite'
p490
I2844
sS'guidance'
p491
I2821
sS'breath_shortness_or_difficulty'
p492
I3798
sS'appreciated'
p493
I1783
sS'screening'
p494
I2468
sS'constant'
p495
I708
sS'rice'
p496
I2366
sS'sudafed'
p497
I1397
sS'palliative'
p498
I1465
sS'wearing'
p499
I1340
sS'do'
p500
I40
sS'mulluscum'
p501
I2079
sS'dm'
p502
I963
sS'colorful'
p503
I2110
sS'petrified'
p504
I1605
sS'expectorant'
p505
I1399
sS'de'
p506
I1175
sS'stop'
p507
I1874
sS'fluid'
p508
I1489
sS'pocket'
p509
I3660
sS'enters'
p510
I3616
sS'cat'
p511
I3036
sS'haunted'
p512
I2201
sS'vaccinations'
p513
I1223
sS'despite'
p514
I1484
sS'report'
p515
I24
sS'dr'
p516
I108
sS'ds'
p517
I1551
sS'unfortunately'
p518
I424
sS'infrequent'
p519
I2908
sS'runs'
p520
I235
sS'6ft'
p521
I3723
sS'covering'
p522
I875
sS'sligtly'
p523
I3426
sS'hello'
p524
I309
sS'patch'
p525
I3761
sS'compral'
p526
I503
sS'bad'
p527
I308
sS'shots'
p528
I1210
sS'yelping'
p529
I391
sS'ban'
p530
I3137
sS'fertility'
p531
I1195
sS'explanations'
p532
I1690
sS'bother'
p533
I3768
sS'ears'
p534
I225
sS'mustafa'
p535
I2022
sS'habit'
p536
I473
sS'clarified'
p537
I2811
sS'generally'
p538
I2538
sS'testing'
p539
I171
sS'emergent'
p540
I1747
sS'observed'
p541
I2432
sS'toes'
p542
I3310
sS'result'
p543
I1451
sS'sporadic'
p544
I1950
sS'noodles'
p545
I2307
sS'best'
p546
I59
sS'aspirated'
p547
I2542
sS'saif'
p548
I3551
sS'said'
p549
I292
sS'07'
p550
I2033
sS'lots'
p551
I82
sS'away'
p552
I953
sS'artificial'
p553
I2003
sS'continually'
p554
I1402
sS'grandmother'
p555
I1328
sS'pressures'
p556
I3332
sS'unable'
p557
I1631
sS'finger'
p558
I1698
sS'pets'
p559
I949
sS'drawn'
p560
I3652
sS'occupational'
p561
I3255
sS'lethargic'
p562
I3362
sS'discovery'
p563
I2880
sS'wf'
p564
I2405
sS'we'
p565
I275
sS'monohydrate'
p566
I3004
sS'smelled'
p567
I1315
sS'fruits'
p568
I2374
sS'weak'
p569
I1198
sS'however'
p570
I657
sS'lotion'
p571
I2529
sS'teenaged'
p572
I3512
sS'wear'
p573
I1068
sS'flashes'
p574
I2077
sS'cousin'
p575
I571
sS'picking'
p576
I3725
sS'improve'
p577
I1522
sS'suggested'
p578
I3433
sS'ellipta'
p579
I2736
sS'protect'
p580
I1234
sS'diarree'
p581
I656
sS'keycare'
p582
I3170
sS'irregular'
p583
I2816
sS'reported'
p584
I1103
sS'country'
p585
I1317
sS'ill'
p586
I654
sS'against'
p587
I170
sS'una'
p588
I1158
sS'4k-11k'
p589
I3432
sS'53-108'
p590
I686
sS'mildly'
p591
I1322
sS'27th'
p592
I3039
sS'drs.'
p593
I1667
sS'asked'
p594
I2322
sS'peto-bismol'
p595
I1556
sS'appeared'
p596
I3523
sS'epidemic'
p597
I1713
sS'contantly'
p598
I1770
sS'inbetween'
p599
I1956
sS'active'
p600
I2219
sS'viruses'
p601
I2275
sS'pregnancy'
p602
I1194
sS'250'
p603
I1134
sS'100'
p604
I1567
sS'pneumonia.i'
p605
I2646
sS'abdominal'
p606
I1042
sS'beef'
p607
I2377
sS'basis'
p608
I3355
sS'union'
p609
I3713
sS'fri'
p610
I2210
sS'anc'
p611
I3653
sS'<sos>'
p612
I0
sS'three'
p613
I1576
sS'been'
p614
I80
sS'.'
p615
I4
sS'november2013'
p616
I2099
sS'beer'
p617
I2747
sS'much'
p618
I734
sS'beta2'
p619
I1507
sS'interest'
p620
I810
sS'expected'
p621
I2654
sS'entered'
p622
I3234
sS'warmth'
p623
I3760
sS'colodial'
p624
I926
sS'nessasary'
p625
I2983
sS'allergens'
p626
I2952
sS'life'
p627
I837
sS'recomend'
p628
I981
sS'spit'
p629
I1792
sS'ventoline'
p630
I3754
sS'hospitalized'
p631
I991
sS'pueden'
p632
I1182
sS'concerning'
p633
I3354
sS'worker'
p634
I1870
sS'bladder'
p635
I3316
sS'wish'
p636
I2187
sS'hepa'
p637
I1383
sS'places'
p638
I2271
sS'hba1c'
p639
I1594
sS'lift'
p640
I2888
sS'personally'
p641
I471
sS'catch'
p642
I950
sS'worked'
p643
I893
sS'mcs'
p644
I3732
sS'applied'
p645
I3573
sS'physician'
p646
I1082
sS'save'
p647
I1806
sS'antibotics'
p648
I1028
sS'reddish'
p649
I2472
sS'raspy'
p650
I2105
sS'lessen'
p651
I3326
sS'air'
p652
I1211
sS'near'
p653
I2282
sS'visit'
p654
I1880
sS'sle'
p655
I2689
sS'excersise'
p656
I2114
sS'balance'
p657
I3064
sS'tans'
p658
I2502
sS'seven'
p659
I2241
sS'mexico'
p660
I2564
sS'nauseas'
p661
I3090
sS'is'
p662
I58
sS'38.4'
p663
I3549
sS'sanitizer'
p664
I66
sS'it'
p665
I76
sS'iv'
p666
I698
sS'ii'
p667
I998
sS'need'
p668
I22
sS'cant'
p669
I638
sS'dizzy'
p670
I1190
sS'im'
p671
I919
sS'in'
p672
I14
sS'march'
p673
I259
sS'pathology'
p674
I3599
sS'sever'
p675
I858
sS'if'
p676
I63
sS'abscess'
p677
I1722
sS'confirmed'
p678
I1591
sS'severity'
p679
I2854
sS'suggest'
p680
I544
sS'make'
p681
I305
sS'toaster'
p682
I3632
sS'wound'
p683
I3123
sS'airport'
p684
I2265
sS'forehead'
p685
I2256
sS'fatal'
p686
I3087
sS'complex'
p687
I438
sS'babies'
p688
I3212
sS'spatum'
p689
I3068
sS'several'
p690
I836
sS'showing'
p691
I786
sS'european'
p692
I3712
sS'fairly'
p693
I2609
sS'ello'
p694
I1785
sS'hand'
p695
I51
sS'i.'
p696
I2836
sS'overt'
p697
I3297
sS'discoloration'
p698
I2761
sS'thoughts'
p699
I2614
sS'cycle'
p700
I832
sS'prescribed'
p701
I111
sS'type_1_diabetes'
p702
I3813
sS'kept'
p703
I655
sS'burny'
p704
I2516
sS'tht'
p705
I3437
sS'uploading'
p706
I560
sS'drip'
p707
I231
sS'tho'
p708
I2107
sS'episode'
p709
I3668
sS'contact'
p710
I341
sS'severe_obesity'
p711
I3815
sS'mathews'
p712
I1446
sS'mother'
p713
I884
sS'the'
p714
I10
sS'smoked'
p715
I1765
sS'endometriosis'
p716
I3529
sS'left'
p717
I1049
sS'seasonal'
p718
I2915
sS'protocol'
p719
I3460
sS'background'
p720
I2480
sS'just'
p721
I461
sS'starting'
p722
I1547
sS'????'
p723
I1763
sS'bronchospasm'
p724
I3705
sS'thanks'
p725
I632
sS'facts'
p726
I1216
sS'followed'
p727
I3524
sS'yes'
p728
I2217
sS'yet'
p729
I183
sS'previous'
p730
I2485
sS'thyroid'
p731
I2590
sS'cervix'
p732
I1199
sS'progresses'
p733
I2106
sS'atrial'
p734
I1539
sS'ex-smoker'
p735
I2913
sS'stent'
p736
I1077
sS'ease'
p737
I3182
sS'had'
p738
I176
sS'pharmacy'
p739
I2343
sS'thickening'
p740
I1899
sS'spread'
p741
I2098
sS'board'
p742
I2820
sS'has'
p743
I89
sS'hat'
p744
I2446
sS'sulfa'
p745
I890
sS'gave'
p746
I299
sS'opt'
p747
I3699
sS'20/03'
p748
I3719
sS'relating'
p749
I3686
sS'mayo'
p750
I1771
sS'online'
p751
I2272
sS'progressed'
p752
I3292
sS'possible'
p753
I726
sS'possibly'
p754
I1191
sS'birth'
p755
I1203
sS'cape'
p756
I262
sS'levofloxoacin'
p757
I2875
sS'e.c.g.'
p758
I2004
sS'advanced'
p759
I1300
sS'apart'
p760
I2693
sS'shoulder'
p761
I1031
sS'psychological'
p762
I2860
sS'instead'
p763
I3396
sS'58'
p764
I1994
sS'55'
p765
I664
sS'='
p766
I1740
sS'51'
p767
I1788
sS'50'
p768
I909
sS'quadriplegic'
p769
I206
sS'52'
p770
I3540
sS'specific'
p771
I947
sS'amox'
p772
I3533
sS'steps'
p773
I283
sS'night'
p774
I93
sS'blades'
p775
I1957
sS'ninguno'
p776
I1174
sS'right'
p777
I584
sS'old'
p778
I100
sS'deal'
p779
I1851
sS'amoxicilin'
p780
I936
sS'prolonged'
p781
I3164
sS'klacid'
p782
I300
sS'somehow'
p783
I2248
sS'dead'
p784
I1081
sS'born'
p785
I2532
sS'46yrs'
p786
I1633
sS'readmitted'
p787
I922
sS'dear'
p788
I1992
sS'multiple'
p789
I1014
sS'precautions'
p790
I1055
sS'monogama'
p791
I1173
sS'dense'
p792
I1912
sS'for'
p793
I9
sS'bottom'
p794
I1325
sS'lockdown'
p795
I1882
sS'candidate'
p796
I3375
sS'/'
p797
I908
sS'contributing'
p798
I2760
sS'everything'
p799
I2884
sS'individuals'
p800
I1878
sS'imodium'
p801
I1557
sS'confusion'
p802
I2879
sS'beating'
p803
I2335
sS'prevnar'
p804
I1373
sS'icu'
p805
I1471
sS'knew'
p806
I867
sS'pls'
p807
I1826
sS'dropped'
p808
I1980
sS'confluent'
p809
I1409
sS'quarantine.i'
p810
I2870
sS'burp'
p811
I2326
sS'cardiomyopathy'
p812
I3811
sS'post'
p813
I230
sS'96-97'
p814
I1982
sS'bury'
p815
I2202
sS'herpes'
p816
I3554
sS'tricot'
p817
I3557
sS'puking'
p818
I3062
sS'exasberated'
p819
I1926
sS'lightheaded'
p820
I2234
sS'ribs'
p821
I158
sS'months'
p822
I96
sS'ranges'
p823
I3592
sS'oostenryk'
p824
I2496
sS'o'
p825
I44
sS'ptsd'
p826
I2200
sS'napamol'
p827
I1359
sS'unwell_duration'
p828
I3803
sS'plus'
p829
I1062
sS'afternoon'
p830
I1292
sS'steadily'
p831
I1978
sS'sept'
p832
I1927
sS'book'
p833
I1867
sS'automatically'
p834
I3752
sS'mbl'
p835
I1603
sS'raised'
p836
I355
sS'whats'
p837
I1703
sS'lied'
p838
I2306
sS'facility'
p839
I610
sS'profession'
p840
I2482
sS'phnemoia'
p841
I3738
sS'son'
p842
I175
sS'down'
p843
I345
sS'complaints'
p844
I3149
sS'experie'
p845
I2954
sS'wrap'
p846
I2428
sS'amsterdam'
p847
I3714
sS'rounds'
p848
I1574
sS'wan'
p849
I318
sS'advair'
p850
I2574
sS'ihad'
p851
I2167
sS'outbreaks'
p852
I3622
sS'support'
p853
I3373
sS'sneezing'
p854
I1035
sS'knowing'
p855
I3317
sS'class'
p856
I3144
sS'stuck'
p857
I1378
sS'200mcg/dose'
p858
I1513
sS'way'
p859
I898
sS'flu-like'
p860
I3597
sS'resulted'
p861
I3384
sS'gin'
p862
I3349
sS'wat'
p863
I2507
sS'was'
p864
I73
sS'blurry'
p865
I3152
sS'starve'
p866
I2360
sS'head'
p867
I586
sS'washed'
p868
I3385
sS'secondhand'
p869
I2783
sS'form'
p870
I713
sS'offer'
p871
I3258
sS'clinics'
p872
I1229
sS'littel'
p873
I2409
sS'becoming'
p874
I2072
sS'26th'
p875
I1841
sS'amoxillin'
p876
I1358
sS'uncle'
p877
I445
sS'elderly'
p878
I280
sS'yyyy@yyyy'
p879
I1587
sS'removed'
p880
I1083
sS'true'
p881
I1802
sS'lymp'
p882
I2639
sS'nov.'
p883
I2057
sS'leaky'
p884
I3345
sS'extremity'
p885
I139
sS'c-scans'
p886
I1115
sS'inside'
p887
I2270
sS'day?and'
p888
I1474
sS'maximum'
p889
I530
sS'until'
p890
I1224
sS'complications'
p891
I1525
sS'lays'
p892
I1091
sS'daddy'
p893
I2837
sS'reprisal'
p894
I3640
sS'advise'
p895
I1187
sS'nyquil'
p896
I2812
sS'juvenile'
p897
I2603
sS'medication'
p898
I168
sS'hotter'
p899
I2651
sS'exerting'
p900
I2113
sS'-rrb-'
p901
I57
sS'100km'
p902
I3625
sS'upset'
p903
I2134
sS'escape'
p904
I2181
sS'store'
p905
I2341
sS'drive'
p906
I3486
sS'somebody'
p907
I3410
sS'infection.i'
p908
I1129
sS'expertise'
p909
I499
sS'feelling'
p910
I777
sS'awhile'
p911
I2166
sS'covera'
p912
I3774
sS'check'
p913
I1386
sS'physical'
p914
I3235
sS'specially'
p915
I2526
sS'weakened'
p916
I320
sS'no'
p917
I29
sS'na'
p918
I319
sS'when'
p919
I389
sS'setting'
p920
I353
sS'holding'
p921
I3742
sS'np'
p922
I1254
sS'smell'
p923
I1059
sS'roll'
p924
I2172
sS'sore_throat'
p925
I3800
sS'node'
p926
I2680
sS"'s"
p927
I77
sS'brothers'
p928
I2196
sS'pronounced'
p929
I2066
sS'dies'
p930
I928
sS'felt'
p931
I510
sS'weirdest'
p932
I2519
sS'maternity'
p933
I2117
sS'unwell'
p934
I2303
sS"'d"
p935
I740
sS'zovirax'
p936
I3555
sS'rising'
p937
I3449
sS'professional'
p938
I3200
sS'discharge'
p939
I399
sS"'m"
p940
I190
sS'hurt'
p941
I1326
sS'weekend'
p942
I245
sS'died'
p943
I2168
sS'congested'
p944
I2582
sS'billion'
p945
I1565
sS'younger'
p946
I2395
sS'longer'
p947
I774
sS'tested'
p948
I295
sS'sacks'
p949
I2724
sS'interval'
p950
I1505
sS'landed'
p951
I3459
sS'daily'
p952
I452
sS'dipropionate'
p953
I1518
sS'time'
p954
I13
sS'serious'
p955
I494
sS'phlegm'
p956
I132
sS'ambulance'
p957
I3253
sS'35.3'
p958
I1429
sS'comorbidity'
p959
I3226
sS'people'
p960
I878
sS'deliveries'
p961
I2550
sS'leads'
p962
I2993
sS'hemidiaphragms'
p963
I3505
sS'mild'
p964
I258
sS'ambrolite'
p965
I517
sS'aiims'
p966
I1450
sS'skin'
p967
I1834
sS'ventilator'
p968
I1460
sS'remarkably'
p969
I525
sS'37.3'
p970
I3015
sS'displaying'
p971
I1138
sS'milk'
p972
I3075
sS'row'
p973
I3054
sS'convuls'
p974
I3167
sS'depend'
p975
I3294
sS'disorders'
p976
I315
sS'pneumonia.shes'
p977
I3782
sS'mystenia'
p978
I2838
sS'father'
p979
I1070
sS'thighs'
p980
I2528
sS'environment'
p981
I2896
sS'finally'
p982
I3559
sS'unpleasant'
p983
I793
sS'gigi'
p984
I1787
sS'suffered'
p985
I1503
sS'96'
p986
I2013
sS'brown'
p987
I2473
sS'deap'
p988
I1967
sS'102.4'
p989
I2801
sS'none'
p990
I2702
sS'choice'
p991
I2720
sS'phlegmy'
p992
I1265
sS'advised'
p993
I756
sS'cook'
p994
I3365
sS'trouble'
p995
I188
sS'exact'
p996
I3647
sS'minute'
p997
I2328
sS'cool'
p998
I1710
sS'ammounts'
p999
I3070
sS'raashid'
p1000
I2021
sS'respiratory'
p1001
I465
sS'level'
p1002
I827
sS'did'
p1003
I337
sS'die'
p1004
I323
sS'brother'
p1005
I1543
sS'gum'
p1006
I2758
sS'christmas'
p1007
I1733
sS'leave'
p1008
I864
sS'p'
p1009
I2156
sS'settle'
p1010
I3663
sS'tums'
p1011
I2319
sS'2.67'
p1012
I3744
sS'quick'
p1013
I783
sS'teaching'
p1014
I2483
sS'spent'
p1015
I3530
sS'round'
p1016
I1756
sS'teruggekom'
p1017
I2494
sS'shave'
p1018
I3413
sS'prevent'
p1019
I1375
sS'pork'
p1020
I2376
sS'talked'
p1021
I2342
sS'says'
p1022
I962
sS'bacterias'
p1023
I3168
sS'spasms'
p1024
I3707
sS'medicross'
p1025
I291
sS'htn'
p1026
I1866
sS'sign'
p1027
I2093
sS'cost'
p1028
I1473
sS'hospitalised'
p1029
I1600
sS'eating'
p1030
I1497
sS'bacterial'
p1031
I1754
sS'bacteria'
p1032
I1658
sS'drinks'
p1033
I2294
sS'panado'
p1034
I587
sS'stressful'
p1035
I449
sS'appear'
p1036
I2044
sS'assistance'
p1037
I2741
sS'contracted'
p1038
I3119
sS'4:00'
p1039
I3483
sS'current'
p1040
I1099
sS'switch'
p1041
I1798
sS'wolff'
p1042
I2225
sS'suspect'
p1043
I3118
sS'goes'
p1044
I440
sS'falling'
p1045
I2731
sS'boost'
p1046
I2437
sS'vinegar'
p1047
I3749
sS'cdc.gov'
p1048
I3270
sS'transportation'
p1049
I2727
sS'prescriptions'
p1050
I843
sS'appendicitis'
p1051
I2137
sS'subsided'
p1052
I3667
sS'french'
p1053
I2387
sS'water'
p1054
I1054
sS'knocked'
p1055
I3006
sS'congestion'
p1056
I271
sS'hoarse'
p1057
I1294
sS'along'
p1058
I1363
sS'teacher'
p1059
I2592
sS'change'
p1060
I1137
sS'wait'
p1061
I651
sS'wellstar'
p1062
I3195
sS'sending'
p1063
I2612
sS'unidentified'
p1064
I3101
sS'chlorzoxazone'
p1065
I3552
sS'battling'
p1066
I1302
sS'healthy'
p1067
I286
sS'root'
p1068
I3419
sS'strudel'
p1069
I3633
sS'chest/lungs'
p1070
I3688
sS'57.6'
p1071
I79
sS'simultaneous'
p1072
I3188
sS'diagnosed'
p1073
I412
sS'usually'
p1074
I384
sS'augmentin'
p1075
I1131
sS'weird'
p1076
I37
sS'deg'
p1077
I3157
sS'bruised'
p1078
I3390
sS'20mg'
p1079
I3740
sS'rheumatic'
p1080
I3346
sS'extra'
p1081
I1264
sS'prefer'
p1082
I423
sS'bloody'
p1083
I1365
sS'fbc'
p1084
I2959
sS'stridor'
p1085
I3704
sS'pnuemonia'
p1086
I3305
sS'1st'
p1087
I902
sS'advil/ibuprofen'
p1088
I3093
sS'sharm'
p1089
I1855
sS'rarely'
p1090
I736
sS'peresent'
p1091
I3471
sS'crisis'
p1092
I2851
sS'market'
p1093
I2384
sS'transplant'
p1094
I2900
sS'sweating'
p1095
I161
sS'ngt'
p1096
I2415
sS'undergone'
p1097
I2059
sS'seftum'
p1098
I3560
sS'working'
p1099
I945
sS'duda'
p1100
I1159
sS'positive'
p1101
I247
sS'stated'
p1102
I2745
sS'pero'
p1103
I1169
sS'only'
p1104
I78
sS'france'
p1105
I1152
sS'live'
p1106
I1566
sS'wondering'
p1107
I1808
sS'criteria'
p1108
I2440
sS'thru'
p1109
I1246
sS'today'
p1110
I569
sS'entrance'
p1111
I3047
sS'amoxicillin.he'
p1112
I3464
sS'suggestions'
p1113
I865
sS'self-isolate'
p1114
I2216
sS'apparent'
p1115
I3002
sS'infiltrate.wbc'
p1116
I1124
sS'antigens'
p1117
I2045
sS'everywhere'
p1118
I3425
sS'is.brent'
p1119
I2518
sS'cases'
p1120
I1318
sS'painfull'
p1121
I3000
sS'effort'
p1122
I2368
sS'fly'
p1123
I1781
sS'flares'
p1124
I3283
sS'recurrance'
p1125
I1005
sS'armpits'
p1126
I2527
sS'flemmy'
p1127
I1343
sS'car'
p1128
I255
sS'originally'
p1129
I2565
sS'flu'
p1130
I612
sS'modified'
p1131
I3368
sS'jude'
p1132
I1642
sS'alone'
p1133
I2918
sS'14yrs'
p1134
I3371
sS'can'
p1135
I293
sS'9th'
p1136
I2315
sS'brca'
p1137
I997
sS'making'
p1138
I816
sS'arrive'
p1139
I2889
sS'pretoria'
p1140
I1356
sS'slightest'
p1141
I778
sS'heart'
p1142
I1078
sS'nursing'
p1143
I1646
sS'figure'
p1144
I2717
sS'december'
p1145
I1660
sS'awesome'
p1146
I2401
sS'confused'
p1147
I2571
sS'shahin'
p1148
I2025
sS'usg'
p1149
I1821
sS'svts'
p1150
I2231
sS'heard'
p1151
I1680
sS'stroke'
p1152
I2935
sS'celsius'
p1153
I2625
sS'palpitations'
p1154
I2815
sS'performed'
p1155
I1889
sS'reqd'
p1156
I1467
sS'pink'
p1157
I3656
sS'rays'
p1158
I2407
sS'monitoring'
p1159
I3013
sS'wheezy'
p1160
I3387
sS'septic'
p1161
I707
sS'type1'
p1162
I3519
sS'spreads'
p1163
I1053
sS'800mg'
p1164
I1393
sS'motinorm'
p1165
I2419
sS'1'
p1166
I661
sS'immune'
p1167
I306
sS'sunday'
p1168
I1353
sS'litocane'
p1169
I905
sS'pure'
p1170
I3331
sS',1'
p1171
I913
sS'self-quarantine'
p1172
I1320
sS'??'
p1173
I1807
sS'staying'
p1174
I952
sS'atak'
p1175
I633
sS'140'
p1176
I103
sS'information'
p1177
I3207
sS'may'
p1178
I880
sS'max'
p1179
I1457
sS'spot'
p1180
I1731
sS'anibiotic'
p1181
I3011
sS'fistula'
p1182
I3605
sS'4th'
p1183
I2314
sS'seeing'
p1184
I3595
sS'improving'
p1185
I260
sS'such'
p1186
I1673
sS'hoofpyn'
p1187
I1282
sS'revealed'
p1188
I2443
sS'grow'
p1189
I675
sS'lingular'
p1190
I1123
sS'man'
p1191
I311
sS'vomited'
p1192
I2310
sS'stress'
p1193
I2768
sS'natural'
p1194
I3601
sS'remember'
p1195
I435
sS'rondebosch'
p1196
I2041
sS'whenever'
p1197
I1578
sS'6th'
p1198
I920
sS'scans'
p1199
I3490
sS'corona'
p1200
I18
sS'st'
p1201
I3627
sS'q'
p1202
I193
sS'provide'
p1203
I881
sS'si'
p1204
I1160
sS'malaise'
p1205
I2845
sS'so'
p1206
I184
sS'termometer'
p1207
I2775
sS'swollen'
p1208
I2635
sS'snowed'
p1209
I3155
sS'cheek.does'
p1210
I2776
sS'sa'
p1211
I1859
sS'b.shankar'
p1212
I3584
sS'talk'
p1213
I1332
sS'sd'
p1214
I966
sS'approx'
p1215
I790
sS'serving'
p1216
I2215
sS'shoes'
p1217
I2982
sS'brain_and_nervous_system_disease'
p1218
I3823
sS'feb'
p1219
I2299
sS'gradual'
p1220
I2857
sS'mainly'
p1221
I2462
sS'years'
p1222
I99
sS'course'
p1223
I1130
sS'episodes'
p1224
I3621
sS'tablets'
p1225
I563
sS'dismissed'
p1226
I1661
sS'cold'
p1227
I163
sS'still'
p1228
I126
sS'pointer'
p1229
I1697
sS'blocked'
p1230
I1716
sS'tore'
p1231
I3306
sS'machine'
p1232
I1061
sS'group'
p1233
I1524
sS'thank'
p1234
I500
sS'osteophyroses'
p1235
I3776
sS'thang'
p1236
I2520
sS'vicinity'
p1237
I2909
sS'forms'
p1238
I3680
sS'gaging'
p1239
I958
sS'mail'
p1240
I3586
sS'main'
p1241
I3208
sS'decades'
p1242
I739
sS'happened'
p1243
I2246
sS'non'
p1244
I1530
sS'undiagnosed'
p1245
I3644
sS'adjacent'
p1246
I1903
sS'lightheadedness'
p1247
I2302
sS'moms'
p1248
I3274
sS'insomnia'
p1249
I2814
sS'feelin'
p1250
I1636
sS'disease.i'
p1251
I3038
sS'lunch'
p1252
I2385
sS'touching'
p1253
I2065
sS'sentitive'
p1254
I2081
sS'half'
p1255
I2537
sS'not'
p1256
I32
sS'now'
p1257
I248
sS'discuss'
p1258
I3040
sS'nor'
p1259
I538
sS'densities'
p1260
I1410
sS'term'
p1261
I3641
sS'name'
p1262
I375
sS'feverish'
p1263
I1323
sS'fumes'
p1264
I3638
sS'january'
p1265
I1840
sS'drop'
p1266
I2334
sS'pneumonia.since'
p1267
I1504
sS'32.5'
p1268
I2640
sS'h'
p1269
I3659
sS'x10'
p1270
I1242
sS'stays'
p1271
I2787
sS'quarter'
p1272
I2536
sS'el'
p1273
I1856
sS'domain'
p1274
I846
sS'en'
p1275
I1791
sS'agin'
p1276
I1793
sS'ek'
p1277
I1269
sS'ph.'
p1278
I2412
sS'cairo'
p1279
I1854
sS'eg'
p1280
I3461
sS'sugars'
p1281
I3351
sS'yeah'
p1282
I2370
sS'catching'
p1283
I282
sS'yeas'
p1284
I1609
sS'year'
p1285
I430
sS'methotrexate'
p1286
I2122
sS'ft'
p1287
I3515
sS'happen'
p1288
I663
sS'morning'
p1289
I6
sS'spiking'
p1290
I1488
sS'pills'
p1291
I957
sS'er'
p1292
I2068
sS'softgetl'
p1293
I1558
sS'living'
p1294
I2664
sS'shown'
p1295
I3604
sS'medications'
p1296
I1247
sS'pneumoria'
p1297
I2876
sS'hct'
p1298
I1126
sS'factors'
p1299
I2615
sS'symtpoms'
p1300
I493
sS'tingly'
p1301
I2601
sS'increase'
p1302
I2512
sS'seriously'
p1303
I2695
sS'internet'
p1304
I2794
sS'formula'
p1305
I2417
sS'correct'
p1306
I1121
sS'gram'
p1307
I1521
sS'arthritis'
p1308
I714
sS'case.two'
p1309
I3787
sS'tienen'
p1310
I1164
sS'contain'
p1311
I506
sS'pumping'
p1312
I2239
sS'118/70'
p1313
I2011
sS'quite'
p1314
I1331
sS'everyone'
p1315
I3696
sS'bumps'
p1316
I2083
sS'complicated'
p1317
I3186
sS'lump'
p1318
I1938
sS'besides'
p1319
I393
sS'inhaler'
p1320
I737
sS'cough'
p1321
I113
sS'kefstar'
p1322
I1795
sS'11:58'
p1323
I2337
sS'care'
p1324
I1466
sS'advance'
p1325
I2823
sS'lanseria'
p1326
I265
sS'couldn'
p1327
I718
sS'sillhouette'
p1328
I3504
sS'spam'
p1329
I2309
sS'pandemic'
p1330
I1225
sS'covid'
p1331
I239
sS'10mg'
p1332
I2155
sS'turn'
p1333
I821
sS'moontlik'
p1334
I1275
sS'place'
p1335
I742
sS'vision'
p1336
I3153
sS'think'
p1337
I943
sS'frequent'
p1338
I523
sS'first'
p1339
I12
sS'earache'
p1340
I2465
sS'constantly'
p1341
I658
sS'surviving'
p1342
I732
sS'gargling'
p1343
I1682
sS'parkinson'
p1344
I1644
sS'one'
p1345
I346
sS'williams'
p1346
I3636
sS'fast'
p1347
I1960
sS'ons'
p1348
I2493
sS'sounds'
p1349
I2050
sS'fight'
p1350
I3171
sS'open'
p1351
I1668
sS'tomorrow'
p1352
I1872
sS'discharged'
p1353
I1610
sS'size'
p1354
I3009
sS'hypogammaglobulinemia'
p1355
I695
sS'city'
p1356
I554
sS'little'
p1357
I752
sS'necessarily'
p1358
I3671
sS'checked'
p1359
I622
sS'district'
p1360
I2283
sS'consolidatory'
p1361
I1891
sS'fl'
p1362
I2403
sS'slept'
p1363
I1552
sS'europe'
p1364
I3259
sS'plastic'
p1365
I2980
sS'anyone'
p1366
I1316
sS'returns'
p1367
I1401
sS'2'
p1368
I147
sS'stuffed'
p1369
I1064
sS'white'
p1370
I666
sS'structures'
p1371
I1416
sS'frame'
p1372
I2856
sS'friend'
p1373
I598
sS'gives'
p1374
I2249
sS'anus'
p1375
I2628
sS'eyes'
p1376
I398
sS'mannose-binding'
p1377
I3025
sS'mostly'
p1378
I156
sS'that'
p1379
I62
sS'season'
p1380
I3687
sS'pulmologist'
p1381
I3763
sS'continuous'
p1382
I2469
sS'dorms'
p1383
I2663
sS'released'
p1384
I1084
sS'day.temp'
p1385
I2686
sS'tetracyline'
p1386
I3107
sS'eliminated'
p1387
I2967
sS'bruised/fractured'
p1388
I1965
sS'than'
p1389
I332
sS'boyfriend'
p1390
I1056
sS'11'
p1391
I601
sS'10'
p1392
I1221
sS'incovenicence'
p1393
I492
sS'12'
p1394
I557
sS'15'
p1395
I637
sS'third'
p1396
I1026
sS'17'
p1397
I676
sS'16'
p1398
I2173
sS'19'
p1399
I240
sS'18'
p1400
I1289
sS'xrays'
p1401
I2570
sS'lugs'
p1402
I1815
sS'transferred'
p1403
I3272
sS'r'
p1404
I49
sS'were'
p1405
I450
sS'werk'
p1406
I1280
sS'directed'
p1407
I2807
sS'ventillation'
p1408
I1996
sS'and'
p1409
I34
sS'hairline'
p1410
I1942
sS'illness'
p1411
I466
sS'san'
p1412
I2278
sS'calcification.my'
p1413
I1913
sS'parking'
p1414
I3145
sS'turned'
p1415
I1025
sS'xays'
p1416
I1243
sS'say'
p1417
I1146
sS'buried'
p1418
I2204
sS'fever.sometimes'
p1419
I1718
sS'tylenol'
p1420
I3337
sS'breakfast'
p1421
I2297
sS'recover'
p1422
I1477
sS'saw'
p1423
I2207
sS'any'
p1424
I187
sS'sat'
p1425
I1336
sS'date'
p1426
I1396
sS'advil'
p1427
I2511
sS'veteran'
p1428
I2444
sS'facemasks'
p1429
I3750
sS'isolate'
p1430
I252
sS'ideas'
p1431
I2928
sS'levofloxacin'
p1432
I1776
sS'swallowing'
p1433
I2284
sS'potential'
p1434
I2804
sS'take'
p1435
I284
sS'fracture'
p1436
I1445
sS'thermometer'
p1437
I604
sS'green'
p1438
I2595
sS'wonder'
p1439
I3307
sS'azrithomycin'
p1440
I3532
sS'ironically'
p1441
I404
sS'sure'
p1442
I297
sS'pain'
p1443
I227
sS'nsaids'
p1444
I3446
sS'normal'
p1445
I409
sS'track'
p1446
I1975
sS'price'
p1447
I3019
sS'incidence'
p1448
I542
sS'falls'
p1449
I845
sS'metatone'
p1450
I3405
sS'importantly'
p1451
I693
sS'occurred'
p1452
I2858
sS'bowels'
p1453
I1555
sS'knee'
p1454
I2887
sS'cleared'
p1455
I1676
sS'especially'
p1456
I1185
sS'failure'
p1457
I1850
sS'considered'
p1458
I2539
sS'later'
p1459
I512
sS'infections'
p1460
I1839
sS'hungry'
p1461
I2358
sS'tooth'
p1462
I3178
sS'managing'
p1463
I2742
sS'clearing'
p1464
I3341
sS'hear'
p1465
I1671
sS'salt'
p1466
I1687
sS'deficency'
p1467
I1604
sS'7:30'
p1468
I3034
sS'event'
p1469
I3117
sS'rating'
p1470
I2330
sS'walking'
p1471
I109
sS'shot'
p1472
I1027
sS'show'
p1473
I1149
sS'in_two_weeks'
p1474
I3805
sS'cheap'
p1475
I2386
sS'discovered'
p1476
I2803
sS'accepting'
p1477
I2549
sS'therapist'
p1478
I3254
sS'inconsistent'
p1479
I1266
sS'tiredness'
p1480
I2990
sS'pump'
p1481
I3060
sS'fever.but'
p1482
I2871
sS'scarce'
p1483
I2408
sS'estos'
p1484
I1170
sS'injection'
p1485
I2598
sS'ground'
p1486
I1900
sS'waited'
p1487
I2363
sS'slow'
p1488
I2619
sS'recomended'
p1489
I978
sS'500mg'
p1490
I302
sS'3'
p1491
I454
sS'dull'
p1492
I3737
sS'tears'
p1493
I403
sS'going'
p1494
I428
sS'arvind'
p1495
I1812
sS'germs'
p1496
I2535
sS'fda'
p1497
I2738
sS'exaggeration'
p1498
I2153
sS'get'
p1499
I294
sS'assistant'
p1500
I2593
sS'routine'
p1501
I3261
sS'begging'
p1502
I2185
sS'<eos>'
p1503
I1
sS'quickly'
p1504
I2997
sS'responding'
p1505
I3521
sS'2mg'
p1506
I2164
sS'paracardiac'
p1507
I2056
sS'12-day'
p1508
I3700
sS'regarding'
p1509
I2658
sS'to/under'
p1510
I1046
sS'seldom'
p1511
I3229
sS'7days'
p1512
I2869
sS'saliva'
p1513
I402
sS'medial'
p1514
I1905
sS'worried'
p1515
I87
sS'xannax'
p1516
I2165
sS'erythromycin'
p1517
I1239
sS'london'
p1518
I2700
sS'finishing'
p1519
I3762
sS'where'
p1520
I758
sS'16th'
p1521
I2921
sS'husband'
p1522
I1299
sS'reveals'
p1523
I1122
sS'lethargy'
p1524
I272
sS'physically'
p1525
I813
sS'percocet'
p1526
I2149
sS'relative'
p1527
I1881
sS'actively'
p1528
I2806
sS'asleep'
p1529
I1087
sS'anyways'
p1530
I2400
sS'hoes'
p1531
I1274
sS'thoat'
p1532
I987
sS'surgery'
p1533
I576
sS'concern'
p1534
I757
sS'surfaces'
p1535
I3589
sS'detect'
p1536
I472
sS'ways'
p1537
I2728
sS'thimy'
p1538
I3275
sS'boy'
p1539
I2631
sS'justifies'
p1540
I3282
sS'inhibitors'
p1541
I3444
sS'vaccines'
p1542
I1372
sS'outside'
p1543
I539
sS'abdomen'
p1544
I3771
sS'between'
p1545
I772
sS'affecting'
p1546
I2227
sS'justified'
p1547
I3280
sS'reading'
p1548
I1407
sS'across'
p1549
I866
sS'dieing'
p1550
I3215
sS'notice'
p1551
I1045
sS'mutuamente'
p1552
I1172
sS'august'
p1553
I1837
sS'screen'
p1554
I2470
sS'style'
p1555
I3578
sS'wednesday'
p1556
I788
sS'steroid'
p1557
I1725
sS'hurts'
p1558
I1711
sS'zpack'
p1559
I1951
sS'moans'
p1560
I1086
sS'hydrate'
p1561
I2530
sS'cervical'
p1562
I2556
sS'come'
p1563
I533
sS'perihilar'
p1564
I3502
sS'reaction'
p1565
I1545
sS'beclometason'
p1566
I1517
sS'fried'
p1567
I2379
sS'acquiring'
p1568
I464
sS'lbs.'
p1569
I104
sS'region'
p1570
I1911
sS'according'
p1571
I3715
sS'contract'
p1572
I1425
sS'called'
p1573
I2036
sS's'
p1574
I195
sS'rashes'
p1575
I2292
sS'workplace'
p1576
I3546
sS'expression'
p1577
I3614
sS'lateral'
p1578
I1894
sS'comes'
p1579
I1338
sS'nearby'
p1580
I2261
sS'yearly'
p1581
I2589
sS'among'
p1582
I1871
sS'brath'
p1583
I3784
sS'cancer'
p1584
I1449
sS'passenger'
p1585
I3192
sS'period'
p1586
I458
sS'insist'
p1587
I172
sS'communicated'
p1588
I3078
sS'60'
p1589
I68
sS'62'
p1590
I620
sS'63'
p1591
I2704
sS'anti'
p1592
I416
sS'65'
p1593
I2578
sS'66'
p1594
I2448
sS'67'
p1595
I650
sS'68'
p1596
I1864
sS'discolored'
p1597
I1310
sS'tastings'
p1598
I3350
sS'amino'
p1599
I2434
sS'better'
p1600
I605
sS'unusual'
p1601
I1298
sS'iterax'
p1602
I420
sS'nauseated'
p1603
I3537
sS'suppressant'
p1604
I1400
sS'informed'
p1605
I840
sS'detected'
p1606
I3430
sS'immunodeficiency'
p1607
I314
sS'breath'
p1608
I327
sS'incubation'
p1609
I1144
sS'tonsils'
p1610
I1728
sS'wheezing'
p1611
I959
sS'abdur'
p1612
I2026
sS'hardly'
p1613
I2901
sS'500'
p1614
I2709
sS'wants'
p1615
I1946
sS'direction'
p1616
I731
sS'shopping'
p1617
I2548
sS'indirect'
p1618
I3303
sS'measles'
p1619
I1222
sS'coughing'
p1620
I90
sS'personas'
p1621
I1177
sS'quarantined'
p1622
I613
sS'bone_marrow_transplant'
p1623
I3821
sS'psudomonas'
p1624
I3478
sS'whooping'
p1625
I2786
sS'wake'
p1626
I2361
sS'external'
p1627
I3201
sS'dirrhea'
p1628
I1217
sS'amoxicillin'
p1629
I1537
sS'suspected'
p1630
I1675
sS'careful'
p1631
I2226
sS'travelling'
p1632
I2701
sS'1mg'
p1633
I904
sS'case'
p1634
I745
sS'myself'
p1635
I616
sS'4-5'
p1636
I3646
sS'4-6'
p1637
I968
sS'developing'
p1638
I1376
sS'these'
p1639
I406
sS'cash'
p1640
I2788
sS'squeezes'
p1641
I2397
sS"n't"
p1642
I489
sS'proves'
p1643
I781
sS'ongoing'
p1644
I2743
sS'familiar'
p1645
I3104
sS'many'
p1646
I427
sS'cancelled'
p1647
I2885
sS'situation'
p1648
I1296
sS'shops'
p1649
I3237
sS'buen'
p1650
I1155
sS'ive'
p1651
I2104
sS'coupled'
p1652
I395
sS'mucus'
p1653
I1355
sS'nebulizers'
p1654
I2829
sS'sleeping'
p1655
I2267
sS'middle'
p1656
I1699
sS'good'
p1657
I2
sS'punched'
p1658
I1577
sS'loosing'
p1659
I618
sS'affected'
p1660
I2554
sS'eraz'
p1661
I635
sS'everyday'
p1662
I1836
sS'worry'
p1663
I1824
sS'different'
p1664
I1491
sS'refill'
p1665
I3132
sS'develop'
p1666
I652
sS'compromised'
p1667
I2850
sS'etc'
p1668
I1127
sS'pay'
p1669
I2881
sS'bowl'
p1670
I2364
sS'delatestryl'
p1671
I835
sS'same'
p1672
I1092
sS'trip'
p1673
I2974
sS'kidney'
p1674
I3528
sS'cnbc'
p1675
I3262
sS'tried'
p1676
I2135
sS'week'
p1677
I344
sS'count-7200'
p1678
I1917
sS'singapore'
p1679
I2630
sS'hulle'
p1680
I1277
sS'assist'
p1681
I1688
sS'aore'
p1682
I1717
sS'weed'
p1683
I2621
sS'persons'
p1684
I2450
sS'running'
p1685
I771
sS'in_a_week'
p1686
I3804
sS'lemon'
p1687
I1949
sS'hydroxychloroquine'
p1688
I3095
sS'totally'
p1689
I2713
sS'passing'
p1690
I2772
sS'booster'
p1691
I1184
sS'antibodies'
p1692
I1335
sS'dying'
p1693
I1606
sS'intermittent'
p1694
I1492
sS'ccu'
p1695
I2543
sS'antihistamine'
p1696
I1597
sS'roommate'
p1697
I1647
sS'severe'
p1698
I799
sS'without'
p1699
I934
sS'relief'
p1700
I797
sS'bottle'
p1701
I964
sS'easing'
p1702
I798
sS'uncomplicated'
p1703
I3612
sS'pa.'
p1704
I2404
sS'lysol'
p1705
I2985
sS'summer'
p1706
I1991
sS'pneumonia.he'
p1707
I3463
sS'celcius'
p1708
I532
sS'being'
p1709
I436
sS'money'
p1710
I1947
sS'guided'
p1711
I1822
sS'panamol'
p1712
I3651
sS'rest'
p1713
I1414
sS'clot'
p1714
I1011
sS'dehydration'
p1715
I3165
sS'kill'
p1716
I60
sS'touch'
p1717
I534
sS'halfway'
p1718
I1306
sS'refills'
p1719
I2659
sS'pils'
p1720
I504
sS'death'
p1721
I929
sS'asthma'
p1722
I469
sS'interstitial'
p1723
I3037
sS'2020/03/15'
p1724
I3357
sS'thinking'
p1725
I1973
sS'seems'
p1726
I382
sS'except'
p1727
I289
sS'improvement'
p1728
I1510
sS'esr-28'
p1729
I1921
sS'4'
p1730
I95
sS'extensive'
p1731
I823
sS'tuesday'
p1732
I1337
sS'protecci\xc3\xb3n'
p1733
I1168
sS'swim'
p1734
I1052
sS'around'
p1735
I20
sS'desperately'
p1736
I2819
sS'read'
p1737
I1559
sS'amc'
p1738
I3654
sS'delhi'
p1739
I976
sS'discontinue'
p1740
I2128
sS'fridge'
p1741
I2906
sS'pos'
p1742
I2211
sS'dark'
p1743
I938
sS'test'
p1744
I250
sS'mom'
p1745
I446
sS'using'
p1746
I81
sS'breakage'
p1747
I1931
sS'ruled'
p1748
I1010
sS'partaking'
p1749
I1043
sS'acute'
p1750
I1995
sS'fibromyalgia'
p1751
I3024
sS'coronavirua'
p1752
I3428
sS'nt'
p1753
I1463
sS'piece'
p1754
I1736
sS'maintained'
p1755
I3724
sS'miracle'
p1756
I3565
sS"'ve"
p1757
I84
sS'physiotherapy'
p1758
I3242
sS'either'
p1759
I418
sS'drainage'
p1760
I2953
sS'64'
p1761
I627
sS'hame'
p1762
I3189
sS'intestinal'
p1763
I3102
sS'nauseous'
p1764
I2986
sS'exposed'
p1765
I1268
sS'alternated'
p1766
I3158
sS'overheated'
p1767
I3498
sS'ibuprofen'
p1768
I201
sS'72'
p1769
I1768
sS'thinks'
p1770
I2563
sS'provided'
p1771
I1100
sS'bronchitis.she'
p1772
I3473
sS'wobbly'
p1773
I3394
sS'courses'
p1774
I1884
sS'pneumovax'
p1775
I1374
sS'tube'
p1776
I582
sS'fluids'
p1777
I579
sS'critical'
p1778
I1648
sS'23rd'
p1779
I750
sS'sputom'
p1780
I2840
sS'ct'
p1781
I266
sS'o2'
p1782
I1626
sS'calmed'
p1783
I1226
sS'accessing'
p1784
I3248
sS'wheat'
p1785
I2381
sS'test_necessity'
p1786
I3795
sS'seconds'
p1787
I56
sS'itching'
p1788
I2034
sS'whose'
p1789
I3786
sS'liver_disease'
p1790
I3819
sS'uneasy'
p1791
I1344
sS'terrified'
p1792
I3352
sS'occured'
p1793
I2929
sS'throw'
p1794
I136
sS'_'
p1795
I47
sS'it.pls'
p1796
I3374
sS'on'
p1797
I173
sS'ok'
p1798
I256
sS'origins'
p1799
I765
sS'stations'
p1800
I2749
sS'beard'
p1801
I3414
sS'of'
p1802
I67
sS'favorite'
p1803
I2175
sS'becky'
p1804
I1925
sS'meal'
p1805
I2357
sS'tremendous'
p1806
I1929
sS'fell'
p1807
I653
sS'medicare'
p1808
I704
sS'stand'
p1809
I1036
sS'neighbor'
p1810
I3147
sS'act'
p1811
I2914
sS'mixed'
p1812
I2622
sS'nonessential'
p1813
I3139
sS'antibody'
p1814
I2958
sS'or'
p1815
I202
sS'op'
p1816
I2455
sS'organizers'
p1817
I1590
sS'nyone'
p1818
I1188
sS'burning'
p1819
I335
sS'inclusion'
p1820
I1845
sS'spreading'
p1821
I1997
sS'skilled'
p1822
I1645
sS'vacation'
p1823
I3710
sS'struggle'
p1824
I3457
sS'diagnostic'
p1825
I3500
sS'involvement'
p1826
I2579
sS'tamoxifin'
p1827
I996
sS'determine'
p1828
I2435
sS'hashimotos'
p1829
I2587
sS'your'
p1830
I497
sS'intervention'
p1831
I782
sS'het'
p1832
I1270
sS'tropical'
p1833
I2656
sS'scratchy'
p1834
I257
sS'fill'
p1835
I1669
sS'her'
p1836
I583
sS'area'
p1837
I1593
sS'aren'
p1838
I3393
sS'qvar'
p1839
I1844
sS'there'
p1840
I242
sS'hey'
p1841
I1189
sS'meals'
p1842
I2863
sS'start'
p1843
I566
sS'low'
p1844
I829
sS'lot'
p1845
I237
sS'brazilian'
p1846
I3174
sS'allergie'
p1847
I1276
sS'fish'
p1848
I2378
sS'allergic'
p1849
I413
sS'atack'
p1850
I2936
sS'complete'
p1851
I3210
sS'enough'
p1852
I1233
sS'reduce'
p1853
I2655
sS'micu'
p1854
I2032
sS'regard'
p1855
I2020
sS'co-worker'
p1856
I1714
sS'103.4'
p1857
I3450
sS'posterior'
p1858
I1904
sS'brain'
p1859
I2945
sS'gibs'
p1860
I1038
sS'lymph'
p1861
I1908
sS'trying'
p1862
I723
sS'with'
p1863
I17
sS'faster'
p1864
I2351
sS'rush'
p1865
I3745
sS'october'
p1866
I3031
sS'aftr'
p1867
I3553
sS'improved'
p1868
I522
sS'assume'
p1869
I2769
sS'medrol'
p1870
I3496
sS'>'
p1871
I2960
sS'torso'
p1872
I2133
sS'agree'
p1873
I3099
sS'paitent'
p1874
I3468
sS'gone'
p1875
I937
sS'since.i'
p1876
I1252
sS'required'
p1877
I3543
sS'autoimmune'
p1878
I3708
sS'taste'
p1879
I1579
sS'certain'
p1880
I2521
sS'describe'
p1881
I1314
sS'moved'
p1882
I767
sS'1:1280'
p1883
I2961
sS'deep'
p1884
I1351
sS'an'
p1885
I351
sS'tengo'
p1886
I1157
sS'ar'
p1887
I2416
sS'hypertension'
p1888
I3613
sS'at'
p1889
I124
sS'girlfriend'
p1890
I2206
sS'fluey'
p1891
I3607
sS'hospitals'
p1892
I1230
sS'perscription'
p1893
I3133
sS'ice'
p1894
I1499
sS'again'
p1895
I373
sS'pnuemoneae'
p1896
I887
sS'yoga'
p1897
I3143
sS'rubbed'
p1898
I3576
sS'administered'
p1899
I1461
sS'diarrhea'
p1900
I2075
sS'penicillin'
p1901
I891
sS'igg'
p1902
I697
sS'tight'
p1903
I207
sS'5'
p1904
I26
sS'98.7'
p1905
I3290
sS'evenings'
p1906
I1251
sS'you'
p1907
I501
sS'offered'
p1908
I795
sS'immunity'
p1909
I1478
sS'poor'
p1910
I3677
sS'students'
p1911
I2662
sS'teeth'
p1912
I2349
sS'included'
p1913
I1150
sS'readings'
p1914
I3655
sS'sneeze'
p1915
I387
sS'13'
p1916
I2499
sS'pool'
p1917
I1707
sS'building'
p1918
I1385
sS'gaghling'
p1919
I3746
sS'remote'
p1920
I3247
sS'bilateral'
p1921
I1573
sS'wife'
p1922
I269
sS'invest'
p1923
I3764
sS'apathy'
p1924
I728
sS'mask'
p1925
I876
sS'having'
p1926
I628
sS'thort'
p1927
I3080
sS'ashmatic'
p1928
I2463
sS'mass'
p1929
I1116
sS'subsegmental'
p1930
I1890
sS'anoro'
p1931
I2735
sS'overseas'
p1932
I3077
sS'oral'
p1933
I911
sS'laryngoscopy'
p1934
I2371
sS'weekness'
p1935
I3526
sS'alo'
p1936
I3293
sS'all'
p1937
I287
sS'influenza'
p1938
I3219
sS'consider'
p1939
I1427
sS'caused'
p1940
I134
sS'runny_nose'
p1941
I3801
sS'allergy'
p1942
I115
sS'ptb'
p1943
I1420
sS'month'
p1944
I460
sS'oxycodone'
p1945
I2158
sS'overdose'
p1946
I2198
sS'talks'
p1947
I824
sS'follow'
p1948
I1758
sS'children'
p1949
I2715
sS'causes'
p1950
I2447
sS'fits'
p1951
I3436
sS'college'
p1952
I1730
sS'37.1-37'
p1953
I2998
sS'thrity'
p1954
I2756
sS'depomedrol'
p1955
I3556
sS'cov19'
p1956
I3135
sS'sars-cov-2'
p1957
I1476
sS'thursday'
p1958
I181
sS'removal'
p1959
I2488
sS'to'
p1960
I23
sS'tonsillitis'
p1961
I3079
sS'program'
p1962
I3325
sS'those'
p1963
I1701
sS'14'
p1964
I677
sS'safety'
p1965
I2096
sS'nodes'
p1966
I1909
sS'te'
p1967
I2509
sS'tb'
p1968
I444
sS'39000'
p1969
I3431
sS'sound'
p1970
I390
sS'woman'
p1971
I2581
sS'appointment'
p1972
I2698
sS'worse'
p1973
I303
sS'deeper'
p1974
I3264
sS'returning'
p1975
I1104
sS'very'
p1976
I11
sS'35.6'
p1977
I1493
sS'suspecting'
p1978
I3065
sS'parasites'
p1979
I2778
sS'inflammed'
p1980
I2080
sS'worsr'
p1981
I3780
sS'worst'
p1982
I3648
sS'pcos'
p1983
I1197
sS'fall'
p1984
I819
sS'awful'
p1985
I2996
sS'bubbles'
p1986
I1406
sS'soles'
p1987
I2981
sS'diagonised'
p1988
I2956
sS'condition'
p1989
I1649
sS'`'
p1990
I486
sS'humira'
p1991
I2605
sS'washing'
p1992
I52
sS'proscribed'
p1993
I2805
sS'--'
p1994
I1932
sS'laying'
p1995
I2583
sS'ge'
p1996
I2414
sS'progesterone'
p1997
I1208
sS'large'
p1998
I2171
sS'small'
p1999
I640
sS'groceries'
p2000
I2723
sS'20th'
p2001
I3545
sS'poa'
p2002
I2939
sS'teh'
p2003
I3739
sS'quicker'
p2004
I2269
sS'antibiotic'
p2005
I944
sS'homosexuales'
p2006
I1163
sS'ten'
p2007
I340
sS'tea'
p2008
I2287
sS'past'
p2009
I94
sS'caughing'
p2010
I3071
sS'rate'
p2011
I684
sS'oralcon'
p2012
I2146
sS'perspective'
p2013
I856
sS'pneumo'
p2014
I2037
sS'further'
p2015
I547
sS'situated'
p2016
I2140
sS'cigars'
p2017
I141
sS'what'
p2018
I38
sS'resulte'
p2019
I2413
sS'sun'
p2020
I1989
sS'stool'
p2021
I2313
sS'microbiology'
p2022
I3466
sS'conjunctivitis'
p2023
I2847
sS'cefuruxime'
p2024
I1794
sS'destroyed'
p2025
I3202
sS'nurse'
p2026
I1231
sS'seemed'
p2027
I602
sS'public'
p2028
I2726
sS'hasn'
p2029
I1255
sS'full'
p2030
I882
sS'reinfection'
p2031
I2533
sS'loose'
p2032
I631
sS'vomiting'
p2033
I641
sS'hours'
p2034
I451
sS'squeezed'
p2035
I3049
sS'thorex'
p2036
I1818
sS'trunk'
p2037
I3727
sS'november'
p2038
I431
sS'strong'
p2039
I2580
sS'addictions'
p2040
I2179
sS'zone'
p2041
I2208
sS'lucknow'
p2042
I1813
sS'qualify'
p2043
I2852
sS'experience'
p2044
I394
sS'tdap'
p2045
I1712
sS'prior'
p2046
I906
sS'amount'
p2047
I2188
sS'base'
p2048
I1941
sS'1000mg'
p2049
I3617
sS'survival'
p2050
I3042
sS'xylocaine'
p2051
I3558
sS'real'
p2052
I2184
sS'onwards'
p2053
I528
sS'vaporizer'
p2054
I1752
sS'via'
p2055
I264
sS'tightness'
p2056
I2867
sS'abeyance'
p2057
I3580
sS'family'
p2058
I350
sS'suddenly'
p2059
I1057
sS'requiring'
p2060
I1723
sS'vih'
p2061
I1180
sS'pepcid'
p2062
I2250
sS'africa'
p2063
I1370
sS'vir'
p2064
I1284
sS'ask'
p2065
I3227
sS'indoors'
p2066
I3416
sS'ringing'
p2067
I2268
sS'eye'
p2068
I2846
sS'takes'
p2069
I1966
sS'faint'
p2070
I2305
sS'two'
p2071
I511
sS'lakeside'
p2072
I3035
sS'relaci\xc3\xb3n'
p2073
I1171
sS'6'
p2074
I702
sS'taken'
p2075
I565
sS'injury'
p2076
I800
sS'wipes'
p2077
I3588
sS'minor'
p2078
I2240
sS'more'
p2079
I330
sS'flat'
p2080
I2782
sS'israel'
p2081
I3594
sS'door'
p2082
I2984
sS'alabama'
p2083
I3630
sS'stable'
p2084
I3014
sS'outpatient'
p2085
I352
sS'catherization'
p2086
I1073
sS'excuse'
p2087
I888
sS'antibiotics'
p2088
I112
sS'stethoscope'
p2089
I2398
sS'stick'
p2090
I2352
sS'broke'
p2091
I1744
sS'known'
p2092
I596
sS'foundations'
p2093
I720
sS'producing'
p2094
I2647
sS'town'
p2095
I263
sS'keeping'
p2096
I1974
sS'aspirational'
p2097
I1452
sS'hour'
p2098
I914
sS'strain'
p2099
I2991
sS'remain'
p2100
I1571
sS'sudden'
p2101
I1616
sS'v'
p2102
I146
sS'betaline'
p2103
I518
sS'c-pack'
p2104
I1029
sS'male'
p2105
I381
sS'specialized'
p2106
I2793
sS'history'
p2107
I780
sS'allegra'
p2108
I3363
sS'compare'
p2109
I2562
sS'atm'
p2110
I3233
sS'antagonists'
p2111
I204
sS'scan'
p2112
I1012
sS'goes.now'
p2113
I2874
sS'joints'
p2114
I2719
sS'fibromyalgia/chronic'
p2115
I681
sS'share'
p2116
I496
sS'pertusses'
p2117
I2560
sS'states'
p2118
I1094
sS'heart_failure'
p2119
I3808
sS'climates'
p2120
I2652
sS'sense'
p2121
I1058
sS'neocate'
p2122
I2433
sS'sharp'
p2123
I1955
sS'scar'
p2124
I447
sS'costophrenic'
p2125
I3506
sS'longest'
p2126
I2937
sS'!'
p2127
I894
sS'huge'
p2128
I2597
sS'needs'
p2129
I3296
sS'xxxx'
p2130
I3016
sS'drained'
p2131
I3086
sS'zantac'
p2132
I2324
sS'rather'
p2133
I2143
sS'bactoclav'
p2134
I1506
sS'breaking'
p2135
I3342
sS'inhalers'
p2136
I120
sS'stayed'
p2137
I685
sS'sevral'
p2138
I3359
sS'occasionally'
p2139
I1526
sS't.i'
p2140
I2431
sS'light-headedness'
p2141
I3150
sS'opacification'
p2142
I1902
sS'okay'
p2143
I1153
sS'threat'
p2144
I2130
sS'advice'
p2145
I169
sS'treatments'
p2146
I733
sS'jumping'
p2147
I3333
sS'maart'
p2148
I2497
sS'plane'
p2149
I1862
sS'blood'
p2150
I561
sS'numb'
p2151
I2602
sS'coming'
p2152
I524
sS'x1.have'
p2153
I1238
sS'fo'
p2154
I2577
sS'a'
p2155
I15
sS'snotty'
p2156
I1341
sS'refuse'
p2157
I853
sS'short'
p2158
I1602
sS'doctos'
p2159
I3550
sS'bloating'
p2160
I2301
sS'resemble'
p2161
I2916
sS'amoxicillin-clav'
p2162
I3334
sS'doctor'
p2163
I277
sS'overnight'
p2164
I210
sS'meat'
p2165
I1827
sS'methadone'
p2166
I789
sS'media'
p2167
I3089
sS'asthama'
p2168
I2842
sS'???'
p2169
I1354
sS'playing'
p2170
I2170
sS'lrt'
p2171
I3222
sS'help'
p2172
I724
sS'adult'
p2173
I3807
sS'developed'
p2174
I680
sS'mgs.symptoms'
p2175
I1135
sS'urine'
p2176
I1366
sS'soon'
p2177
I1632
sS'disabled'
p2178
I703
sS'held'
p2179
I2584
sS'isnt'
p2180
I3377
sS'through'
p2181
I899
sS'filters'
p2182
I1384
sS'signs'
p2183
I787
sS'hell'
p2184
I1944
sS'suffer'
p2185
I1817
sS'its'
p2186
I593
sS'24'
p2187
I1494
sS'25'
p2188
I2515
sS'26'
p2189
I3213
sS'27'
p2190
I1051
sS'20'
p2191
I54
sS'21'
p2192
I274
sS'22'
p2193
I379
sS'23'
p2194
I98
sS'susceptible'
p2195
I2223
sS'pcs'
p2196
I1797
sS'pcp'
p2197
I711
sS'28'
p2198
I2006
sS'29'
p2199
I1201
sS'actually'
p2200
I1738
sS'symptoms'
p2201
I288
sS'absence'
p2202
I3111
sS'fallopian'
p2203
I2489
sS'bypass'
p2204
I1076
sS'atelectasis'
p2205
I3085
sS'undestand'
p2206
I1825
sS'bout'
p2207
I1971
sS'might'
p2208
I485
sS'phone'
p2209
I2245
sS'colleague'
p2210
I2744
sS'hurting'
p2211
I1030
sS'evening'
p2212
I1309
sS'return'
p2213
I1487
sS'yo'
p2214
I2085
sS'entire'
p2215
I2354
sS'food'
p2216
I1066
sS'anticipated'
p2217
I1782
sS'61.35'
p2218
I623
sS'jhb'
p2219
I2141
sS'vomit'
p2220
I1334
sS'receptor'
p2221
I3610
sS'foot'
p2222
I993
sS'canada'
p2223
I3711
sS'yr'
p2224
I665
sS'doc.i'
p2225
I2055
sS'fibulation'
p2226
I1540
sS'instructions'
p2227
I3698
sS'easily'
p2228
I895
sS'8months'
p2229
I2039
sS'pregnant'
p2230
I1192
sS'always'
p2231
I328
sS'gud'
p2232
I2054
sS'bless'
p2233
I3225
sS'micro'
p2234
I1520
sS'someone'
p2235
I246
sS'stopped'
p2236
I85
sS'found'
p2237
I644
sS'ports'
p2238
I2426
sS'heavy'
p2239
I1016
sS'joburg'
p2240
I216
sS'nicotine'
p2241
I2757
sS'weight'
p2242
I625
sS'needless'
p2243
I2199
sS'house'
p2244
I2661
sS'energy'
p2245
I815
sS'hard'
p2246
I1333
sS'cipro'
p2247
I1485
sS'idea'
p2248
I238
sS'cooktime'
p2249
I915
sS'finish'
p2250
I2353
sS'expect'
p2251
I2648
sS'doses'
p2252
I918
sS'scratching'
p2253
I986
sS'practitioner'
p2254
I2897
sS'beyond'
p2255
I1213
sS'insurance'
p2256
I701
sS'really'
p2257
I279
sS'anxious'
p2258
I3278
sS'vertigo'
p2259
I3063
sS'alcohol'
p2260
I70
sS'ears.no'
p2261
I2684
sS'miss'
p2262
I2220
sS'since'
p2263
I180
sS'laproscope'
p2264
I2487
sS'douglas'
p2265
I3196
sS'research'
p2266
I609
sS'health'
p2267
I746
sS'7'
p2268
I901
sS'augmneton'
p2269
I2839
sS'induced'
p2270
I1684
sS'issue'
p2271
I784
sS'occurs'
p2272
I362
sS'bald'
p2273
I1935
sS'friday'
p2274
I1390
sS'intercourse'
p2275
I2064
sS'reguarding'
p2276
I356
sS'difficulty'
p2277
I209
sS'reason'
p2278
I1106
sS'phlem'
p2279
I961
sS'members'
p2280
I2703
sS'put'
p2281
I741
sS'rises'
p2282
I3694
sS'beginning'
p2283
I1206
sS'dexamethasone'
p2284
I2690
sS'pinchthe'
p2285
I3308
sS'cystic'
p2286
I3476
sS'ttrtmt.there'
p2287
I916
sS'muscle_aches'
p2288
I3799
sS'apple'
p2289
I3747
sS'unaware'
p2290
I3236
sS'w'
p2291
I642
sS'scheduled'
p2292
I2632
sS'heartbeat'
p2293
I2012
sS'exercising'
p2294
I2392
sS'copper'
p2295
I1580
sS'major'
p2296
I1810
sS'dont'
p2297
I505
sS'simply'
p2298
I2101
sS'upper'
p2299
I1412
sS'feel'
p2300
I21
sS'number'
p2301
I2070
sS'traveled'
p2302
I261
sS'feet'
p2303
I691
sS'4years'
p2304
I2038
sS'enlarged'
p2305
I1415
sS'smaller'
p2306
I2288
sS'done'
p2307
I980
sS'least'
p2308
I2247
sS'changing'
p2309
I2132
sS'exohaler'
p2310
I3755
sS'mist'
p2311
I1751
sS'warts'
p2312
I760
sS'sulation'
p2313
I639
sS'passes'
p2314
I1598
sS'story'
p2315
I2298
sS'temperature'
p2316
I192
sS'script'
p2317
I1953
sS'together'
p2318
I2046
sS'st.'
p2319
I1447
sS'threatening'
p2320
I3028
sS'airborne'
p2321
I1215
sS'paint'
p2322
I3637
sS'180'
p2323
I668
sS'2wks'
p2324
I2402
sS'passed'
p2325
I1004
sS'dealing'
p2326
I2221
sS'syrup'
p2327
I114
sS'recovered'
p2328
I1654
sS'headache'
p2329
I1140
sS'muscles'
p2330
I1079
sS'pains'
p2331
I155
sS'behind'
p2332
I2289
sS'hotel'
p2333
I2209
sS'antibacterial'
p2334
I2791
sS'est\xc3\xa1'
p2335
I1178
sS'basal'
p2336
I1607
sS'dentist'
p2337
I3418
sS'part'
p2338
I2474
sS'differentiate'
p2339
I3695
sS'worrying'
p2340
I3279
sS'consult'
p2341
I470
sS'believe'
p2342
I1143
sS'shld'
p2343
I982
sS'reliever'
p2344
I2244
sS'kind'
p2345
I1709
sS'b'
p2346
I550
sS'bedrest'
p2347
I1205
sS'gotten'
p2348
I129
sS'tummy'
p2349
I2988
sS'2020'
p2350
I2972
sS'risks'
p2351
I1829
sS'dani'
p2352
I2649
sS'lectin'
p2353
I3026
sS'azithromycin'
p2354
I564
sS'treated'
p2355
I369
sS'pulmonologist'
p2356
I2732
sS'pain/discomfort'
p2357
I3187
sS'20-days'
p2358
I2962
sS'aug.'
p2359
I1619
sS'basically'
p2360
I3113
sS'76'
p2361
I1529
sS'randomly'
p2362
I2318
sS'chronic_lung_diseases'
p2363
I3820
sS'gall'
p2364
I3315
sS'aged'
p2365
I1993
sS'organs'
p2366
I2018
sS'temprature'
p2367
I1308
sS'vulnerable'
p2368
I2126
sS'option'
p2369
I3096
sS'lie'
p2370
I2356
sS'nights'
p2371
I2049
sS'zero'
p2372
I347
sS'self'
p2373
I221
sS'staph'
p2374
I3731
sS'weird/burning'
p2375
I2992
sS'client'
p2376
I3785
sS'onset'
p2377
I1481
sS'also'
p2378
I133
sS'grew'
p2379
I2194
sS'naproxen'
p2380
I3329
sS'genetically'
p2381
I3271
sS'irritated'
p2382
I2917
sS'maintain'
p2383
I3324
sS'rna'
p2384
I2043
sS'unremarkable'
p2385
I1417
sS'play'
p2386
I1500
sS'towards'
p2387
I488
sS'epademic'
p2388
I2148
sS'hombres'
p2389
I1162
sS'eggs'
p2390
I3076
sS'measures'
p2391
I744
sS'nasal'
p2392
I118
sS'chart'
p2393
I860
sS'react'
p2394
I3770
sS'most'
p2395
I692
sS'virus'
p2396
I19
sS'74'
p2397
I1608
sS'plan'
p2398
I1436
sS'significant'
p2399
I3069
sS'70'
p2400
I1831
sS'services'
p2401
I747
sS'alpha'
p2402
I1572
sS'extremely'
p2403
I3287
sS'approved'
p2404
I2737
sS'warfin'
p2405
I3741
sS'mediastinal'
p2406
I1906
sS'bug'
p2407
I2989
sS'clear'
p2408
I212
sS'sometimes'
p2409
I234
sS'cover'
p2410
I873
sS'10am'
p2411
I1954
sS'nonspecific'
p2412
I1887
sS'weigh'
p2413
I2258
sS'bioxin'
p2414
I1431
sS'raas'
p2415
I203
sS'tubes'
p2416
I2490
sS'110-115'
p2417
I2259
sS'lying'
p2418
I1404
sS'weavers'
p2419
I2029
sS'swelling'
p2420
I2610
sS'wayside'
p2421
I820
sS'sheik'
p2422
I1857
sS'outdoor'
p2423
I1708
sS'businesses'
p2424
I3140
sS'dosn'
p2425
I2422
sS'fine'
p2426
I1096
sS'overwhelmed'
p2427
I748
sS'impact'
p2428
I872
sS'access'
p2429
I2163
sS'reoccurring'
p2430
I2144
sS'nervous'
p2431
I2347
sS'less'
p2432
I1805
sS'19th'
p2433
I1458
sS'beat'
p2434
I2350
sS'failed'
p2435
I3783
sS'bongs'
p2436
I2624
sS'sanitize'
p2437
I1832
sS'pretty'
p2438
I2575
sS'congestive'
p2439
I1849
sS'8'
p2440
I219
sS'chestpain'
p2441
I2062
sS'hip'
p2442
I1047
sS'bactrim'
p2443
I1550
sS'his'
p2444
I107
sS'dust'
p2445
I2108
sS'therefore'
p2446
I3382
sS'hiv'
p2447
I2042
sS'permission'
p2448
I1879
sS'occuring'
p2449
I529
sS'domestic'
p2450
I3367
sS'nausia'
p2451
I3475
sS'express'
p2452
I2762
sS'biopsy'
p2453
I3492
sS'grocery'
p2454
I2262
sS'feels'
p2455
I36
sS'anxiety'
p2456
I312
sS'3/5'
p2457
I3736
sS'breast'
p2458
I995
sS'during'
p2459
I339
sS'excruciatingly'
p2460
I3246
sS'workouts'
p2461
I1044
sS'him'
p2462
I135
sS'exhibiting'
p2463
I2706
sS'progressive'
p2464
I2001
sS'medicines'
p2465
I2243
sS'dropping'
p2466
I2478
sS'remove'
p2467
I1727
sS'coughs'
p2468
I1311
sS'hypo'
p2469
I716
sS'prescribing'
p2470
I869
sS'gloves'
p2471
I1069
sS'common'
p2472
I1345
sS'cre'
p2473
I931
sS'switzerland'
p2474
I649
sS'x'
p2475
I1303
sS'dizziness'
p2476
I2944
sS'precaution'
p2477
I223
sS'wrote'
p2478
I1548
sS'restaurants'
p2479
I3204
sS'insane'
p2480
I3427
sS'signify'
p2481
I3664
sS'organ'
p2482
I3311
sS'uses'
p2483
I3484
sS'sex'
p2484
I380
sS'culture'
p2485
I1237
sS'see'
p2486
I276
sS'sed'
p2487
I683
sS'are'
p2488
I462
sS'tender'
p2489
I1695
sS'close'
p2490
I1700
sS'do?really'
p2491
I1259
sS'arm'
p2492
I2255
sS'declined'
p2493
I2810
sS'azithromiacin'
p2494
I1392
sS'#'
p2495
I862
sS'time.every'
p2496
I2779
sS'expert'
p2497
I1475
sS'matter'
p2498
I2180
sS'cougth'
p2499
I3525
sS'currently'
p2500
I558
sS'please'
p2501
I543
sS'rhode'
p2502
I2088
sS'demons'
p2503
I2203
sS'mg/dl'
p2504
I2017
sS'won'
p2505
I3338
sS'20/f'
p2506
I3417
sS'probably'
p2507
I1582
sS'ethyl'
p2508
I1830
sS'numerous'
p2509
I1107
sS'achey'
p2510
I3448
sS'15th'
p2511
I1592
sS'supposed'
p2512
I2082
sS'available'
p2513
I64
sS'2020/03/12'
p2514
I3356
sS'recently'
p2515
I1361
sS'lexi'
p2516
I2613
sS'initially'
p2517
I1321
sS'attention'
p2518
I491
sS'proventil'
p2519
I1843
sS'loweest'
p2520
I3548
sS'incident'
p2521
I1455
sS'bronchoscopy'
p2522
I2969
sS'coffee'
p2523
I3631
sS'clarithromycin'
p2524
I1611
sS'400mg'
p2525
I3779
sS'ibuprophen'
p2526
I507
sS'2020/03/20'
p2527
I3360
sS'both'
p2528
I1760
sS'c'
p2529
I43
sS'cryptic'
p2530
I1743
sS'last'
p2531
I432
sS'angiotensin'
p2532
I3609
sS'hesitant'
p2533
I480
sS'intubated'
p2534
I3252
sS'barely'
p2535
I830
sS'82/44'
p2536
I2999
sS'foreign'
p2537
I535
sS'became'
p2538
I1509
sS'backwards'
p2539
I3395
sS'alot'
p2540
I1948
sS'whole'
p2541
I2380
sS'histamine'
p2542
I3082
sS'that.im'
p2543
I2060
sS'patty'
p2544
I2383
sS'point'
p2545
I730
sS'reasons'
p2546
I2479
sS'sepsis'
p2547
I1329
sS'address'
p2548
I3587
sS'community'
p2549
I358
sS'inflamed'
p2550
I2291
sS'100mg'
p2551
I2796
sS'pm'
p2552
I2212
sS'agents'
p2553
I985
sS'shutdown'
p2554
I555
sS'esophagus'
p2555
I2340
sS'sherwin'
p2556
I3635
sS'expensive'
p2557
I1468
sS'headaches'
p2558
I273
sS'30mg'
p2559
I792
sS'described'
p2560
I2321
sS'raise'
p2561
I2449
sS'duo'
p2562
I1132
sS'monthly'
p2563
I699
sS'due'
p2564
I138
sS'screened'
p2565
I2467
sS'pb'
p2566
I2566
sS'longs'
p2567
I3267
sS'infection_chance'
p2568
I3794
sS'4/28/2017'
p2569
I1780
sS'pe'
p2570
I1398
sS'metronidazole'
p2571
I3109
sS'dur'
p2572
I930
sS'meeting'
p2573
I1387
sS'woke'
p2574
I1290
sS'treatment'
p2575
I357
sS'ansari'
p2576
I2028
sS'resting'
p2577
I2835
sS'refered'
p2578
I1511
sS'myositis'
p2579
I1846
sS'flight'
p2580
I1777
sS'throat/tonsillitis'
p2581
I2145
sS'fire'
p2582
I3127
sS'infect'
p2583
I1479
sS'gas'
p2584
I2748
sS'great'
p2585
I2524
sS'else'
p2586
I443
sS'whatever'
p2587
I3244
sS'athraway'
p2588
I3684
sS'lives'
p2589
I2712
sS'liver'
p2590
I1008
sS'pacemaker'
p2591
I1541
sS'colonoscopy'
p2592
I2643
sS'unnecessarily'
p2593
I1228
sS'honest'
p2594
I2903
sS'hypochondriac'
p2595
I3518
sS'look'
p2596
I1853
sS'raw'
p2597
I2636
sS'straight'
p2598
I3411
sS'canadian'
p2599
I2739
sS'laparoscopic'
p2600
I2424
sS'pill'
p2601
I1394
sS'brilliant'
p2602
I498
sS'while'
p2603
I405
sS'cefidner'
p2604
I3590
sS'p.'
p2605
I2010
sS'loop'
p2606
I1271
sS'pack'
p2607
I365
sS'diarohhea'
p2608
I1612
sS'hoping'
p2609
I495
sS'hrct'
p2610
I979
sS'400'
p2611
I2965
sS'diagonesed'
p2612
I1443
sS'itself'
p2613
I570
sS'seen'
p2614
I1411
sS'ready'
p2615
I3378
sS'rid'
p2616
I130
sS'34'
p2617
I2912
sS'rib'
p2618
I1886
sS'increased'
p2619
I3364
sS'aches'
p2620
I989
sS'urinate'
p2621
I1364
sS'shirt'
p2622
I1986
sS'anymore'
p2623
I960
sS'goes.i'
p2624
I2777
sS'prednisone.i'
p2625
I1245
sS'elevated'
p2626
I1128
sS'carona'
p2627
I2771
sS'close_contact_with_infestor'
p2628
I3825
sS'positively'
p2629
I2910
sS'9'
p2630
I102
sS'lozenges'
p2631
I2759
sS'itchy'
p2632
I224
sS'mucinex'
p2633
I117
sS'eosinophils-2'
p2634
I1920
sS'trichotomy'
p2635
I1462
sS'higher'
p2636
I2438
sS'development'
p2637
I468
sS'used'
p2638
I817
sS'nabi'
p2639
I3412
sS'curbside'
p2640
I3726
sS'roxithromycin'
p2641
I2899
sS'armpit'
p2642
I3619
sS'overweight'
p2643
I2477
sS'yesterday'
p2644
I527
sS'desks'
p2645
I2692
sS'moment'
p2646
I1148
sS'levels'
p2647
I3372
sS'arrived'
p2648
I1285
sS'cleaning'
p2649
I577
sS'assortment'
p2650
I2159
sS'slym'
p2651
I1273
sS'biopsies'
p2652
I1117
sS'recent'
p2653
I1877
sS'bpm'
p2654
I2332
sS'lower'
p2655
I1041
sS'mm/hr'
p2656
I1922
sS'older'
p2657
I1544
sS'flagl'
p2658
I1486
sS'codeine'
p2659
I2808
sS'myeloma'
p2660
I1444
sS'analysis'
p2661
I826
sS'double'
p2662
I2169
sS'person'
p2663
I537
sS'feces'
p2664
I2753
sS'thoroughly'
p2665
I3366
sS'y'
p2666
I643
sS'stating'
p2667
I2669
sS'things'
p2668
I779
sS'soaked'
p2669
I1987
sS'clavicef'
p2670
I2966
sS'12:40'
p2671
I2295
sS'premeds'
p2672
I907
sS'shivering'
p2673
I3361
sS'quarters'
p2674
I2691
sS'product'
p2675
I2905
sS'shape'
p2676
I3302
sS'medival'
p2677
I3681
sS'irritable'
p2678
I3562
sS'crackles'
p2679
I1681
sS'razzaque'
p2680
I2027
sS'injuries'
p2681
I2162
sS'bronchiectias'
p2682
I1767
sS'2mls'
p2683
I834
sS'superficial'
p2684
I2682
sS'$'
p2685
I861
sS'tablet'
p2686
I568
sS'cup'
p2687
I1534
sS'workers'
p2688
I2120
sS'13-15'
p2689
I1589
sS'throats'
p2690
I2770
sS'pressing'
p2691
I3391
sS'anaphylactic'
p2692
I896
sS'parents'
p2693
I281
sS'location'
p2694
I3285
sS'crying'
p2695
I592
sS'amoxycillin'
p2696
I3380
sS'antiparasitic'
p2697
I3106
sS'fatigued'
p2698
I3454
sS'...'
p2699
I1024
sS'complaint'
p2700
I3462
sS'australia'
p2701
I1388
sS'apnea'
p2702
I1060
sS'complains'
p2703
I3154
sS'emergency'
p2704
I2644
sS'benadryl'
p2705
I2452
sS'big'
p2706
I1937
sS'couple'
p2707
I1250
sS'low-grade'
p2708
I3591
sS'assessment'
p2709
I3211
sS'finding'
p2710
I3513
sS'suffering'
p2711
I508
sS'fare'
p2712
I2940
sS'bit'
p2713
I753
sS'suffercation'
p2714
I1635
sS'busamed'
p2715
I2987
sS'clindamycin'
p2716
I1241
sS'knock'
p2717
I1454
sS'axillary'
p2718
I1907
sS'worsening'
p2719
I3327
sS'd'
p2720
I48
sS'semi'
p2721
I2942
sS'follows'
p2722
I1915
sS'flue'
p2723
I167
sS'manifest'
p2724
I3007
sS'separately'
p2725
I3672
sS'continue'
p2726
I854
sS'fnac'
p2727
I1820
sS'rheumatoid'
p2728
I2604
sS'essential'
p2729
I1434
sS'steroid.currently'
p2730
I1133
sS'gargle'
p2731
I519
sS'often'
p2732
I426
sS'absolutely'
p2733
I808
sS'spring'
p2734
I1720
sS'b.'
p2735
I2009
sS'fake'
p2736
I3092
sS'some'
p2737
I743
sS'back'
p2738
I624
sS'ncov'
p2739
I1319
sS'urgent'
p2740
I1622
sS'added'
p2741
I1584
sS'quarantining'
p2742
I2091
sS'28th'
p2743
I2300
sS'curious'
p2744
I3214
sS'mucous'
p2745
I2947
sS'parasite'
p2746
I3103
sS'pale'
p2747
I941
sS'brent'
p2748
I377
sS'delivered'
p2749
I1200
sS'gradually'
p2750
I3788
sS'and/or'
p2751
I251
sS'sharma'
p2752
I3585
sS'ibugesic'
p2753
I3434
sS'pet'
p2754
I3491
sS'per'
p2755
I551
sS'lobar'
p2756
I3043
sS'meds'
p2757
I1101
sS'pounding'
p2758
I3061
sS'scalp'
p2759
I2681
sS'grip.the'
p2760
I2182
sS'levaquin'
p2761
I374
sS'minimal'
p2762
I1419
sS't'
p2763
I46
sS'foley'
p2764
I1367
sS'be'
p2765
I86
sS'patient'
p2766
I368
sS'odor'
p2767
I1313
sS'sample.my'
p2768
I3469
sS'vincents'
p2769
I3628
sS'fed'
p2770
I3403
sS'bt'
p2771
I1976
sS'step'
p2772
I3010
sS'bp'
p2773
I1519
sS'chances.urgently'
p2774
I3376
sS'refuses'
p2775
I3018
sS'ache'
p2776
I617
sS'article'
p2777
I3217
sS'flagyl'
p2778
I3112
sS'intense'
p2779
I386
sS'vaccine'
p2780
I2035
sS'asymptotic'
p2781
I2750
sS'usa'
p2782
I3348
sS'anything'
p2783
I1256
sS'yawn'
p2784
I1327
sS'yesterday.also'
p2785
I3474
sS'range'
p2786
I3027
sS'vivid-19'
p2787
I2139
sS'germany'
p2788
I3134
sS'forearms'
p2789
I2599
sS'bleeds'
p2790
I3645
sS'block'
p2791
I754
sS'recommended'
p2792
I1729
sS'anterior'
p2793
I1893
sS'5ds'
p2794
I2406
sS'71'
p2795
I3319
sS'caretaker'
p2796
I1102
sS'into'
p2797
I441
sS'within'
p2798
I366
sS'vintalator'
p2799
I2934
sS'steady'
p2800
I3743
sS'nothing'
p2801
I1595
sS'appropriate'
p2802
I3480
sS'phnewmonia'
p2803
I1601
sS'genital'
p2804
I759
sS'gurgling'
p2805
I1672
sS'didn'
p2806
I3241
sS'360m'
p2807
I2427
sS'canal'
p2808
I3420
sS'span'
p2809
I2152
sS'goin'
p2810
I1638
sS'renewal'
p2811
I1424
sS'measured'
p2812
I3618
sS'question'
p2813
I354
sS'long'
p2814
I16
sS'ciggerattes'
p2815
I2620
sS'consultation'
p2816
I1869
sS'infected'
p2817
I1020
sS'forward'
p2818
I2866
sS':'
p2819
I376
sS'dx'
p2820
I992
sS'.5'
p2821
I2831
sS'tuberclosis'
p2822
I3370
sS'registered'
p2823
I831
sS'properly'
p2824
I2019
sS'alive'
p2825
I2191
sS'upright'
p2826
I1037
sS'-lrb-'
p2827
I53
sS'line'
p2828
I1678
sS'considerable'
p2829
I796
sS'info'
p2830
I1214
sS'tempered'
p2831
I2799
sS'skull'
p2832
I1943
sS'blockage'
p2833
I1074
sS'lopinavir400mg'
p2834
I2797
sS'dr.s'
p2835
I2151
sS'fries'
p2836
I2388
sS'up'
p2837
I137
sS'us'
p2838
I1809
sS'par'
p2839
I1750
sS'balagung'
p2840
I636
sS'uk'
p2841
I3172
sS'unexpected'
p2842
I3447
sS'z'
p2843
I364
sS'etc.'
p2844
I1095
sS'medical'
p2845
I481
sS'x-ray'
p2846
I556
sS'associated'
p2847
I715
sS'adults'
p2848
I2561
sS'metal'
p2849
I2979
sS'doesn'
p2850
I3041
sS'poisoning'
p2851
I3066
sS'consulted'
p2852
I411
sS'cure'
p2853
I2825
sS'curb'
p2854
I3141
sS'unwise'
p2855
I3146
sS'mypaid'
p2856
I2672
sS'whom'
p2857
I3318
sS'%'
p2858
I69
sS'b/p'
p2859
I1624
sS'occasional'
p2860
I1342
sS'application'
p2861
I1423
sS'nap'
p2862
I1291
sS'points'
p2863
I1694
sS'department'
p2864
I2102
sS'nicd'
p2865
I3716
sS'nice'
p2866
I3767
sS'clean'
p2867
I2274
sS'viral'
p2868
I1762
sS'problems'
p2869
I710
sS'prepared'
p2870
I1067
sS'100-degree'
p2871
I531
sS'ook'
p2872
I1281
sS'sides'
p2873
I1963
sS'ago'
p2874
I149
sS'worsened'
p2875
I2781
sS'suffers'
p2876
I1766
sS'e'
p2877
I145
sS'age'
p2878
I378
sS'confirm'
p2879
I3058
sS'31jan'
p2880
I2973
sS'l.a.the'
p2881
I2569
sS'2003'
p2882
I3323
sS'far'
p2883
I1774
sS'fresh'
p2884
I3692
sS'2009'
p2885
I448
sS'sounded'
p2886
I1307
sS'costochondritis'
p2887
I2218
sS'once'
p2888
I706
sS'xoliar'
p2889
I3709
sS'code'
p2890
I2933
sS'gp'
p2891
I164
sS'umcomfortable'
p2892
I1746
sS'results'
p2893
I615
sS'guafinicine/codein'
p2894
I1432
sS'relaciones'
p2895
I1165
sS'hypothyroidism'
p2896
I2436
sS'fog'
p2897
I2946
sS'go'
p2898
I249
sS'query'
p2899
I548
sS'strep'
p2900
I935
sS'issues'
p2901
I1196
sS'sadated'
p2902
I581
sS'penis'
p2903
I2627
sS'admited'
p2904
I634
sS'stephens'
p2905
I1448
sS'allergex'
p2906
I2924
sS'disposal'
p2907
I2161
sS'concerned'
p2908
I191
sS'nose'
p2909
I179
sS'oclock'
p2910
I2877
sS'covid-1'
p2911
I2078
sS'hiv/aids'
p2912
I3266
sS'late'
p2913
I1755
sS'39-40'
p2914
I3051
sS'recent_travel'
p2915
I3824
sS'include'
p2916
I2092
sS'lks'
p2917
I3032
sS'sent'
p2918
I825
sS'mutation'
p2919
I1001
sS'11:30'
p2920
I2320
sS'breathing'
p2921
I189
sS'garden'
p2922
I2553
sS'handsoap'
p2923
I2792
sS'toenail'
p2924
I3231
sS'listed'
p2925
I2977
sS'continues'
p2926
I1093
sS'schedule'
p2927
I1732
sS'maar'
p2928
I2505
sS'putting'
p2929
I1379
sS'rattling'
p2930
I3676
sS'telling'
p2931
I2393
sS'artery'
p2932
I3810
sS'drinking'
p2933
I2369
sS'continued'
p2934
I1705
sS'nausea'
p2935
I3067
sS'<sentinel>'
p2936
I42
sS'severely'
p2937
I870
sS'moderate'
p2938
I2855
sS'stiff'
p2939
I3623
sS'experiencing'
p2940
I151
sS'shock'
p2941
I921
sS'tissue'
p2942
I1112
sS'fewer'
p2943
I2674
sS'intravenous'
p2944
I2567
sS'try'
p2945
I729
sS'tenderness'
p2946
I3309
sS'whiteout'
p2947
I2540
sS'relation'
p2948
I3203
sS'havent'
p2949
I1588
sS'quoting'
p2950
I3789
sS'cavidur'
p2951
I513
sS'ribs/lower'
p2952
I1962
sS'bleeding'
p2953
I2558
sS'reflux'
p2954
I2339
sS'sensation'
p2955
I336
sS'waking'
p2956
I591
sS'outcomes'
p2957
I3678
sS'smell_loss'
p2958
I3797
sS'blowing'
p2959
I3662
sS'traveling'
p2960
I2067
sS'uncomfortable'
p2961
I1085
sS'growing'
p2962
I3179
sS'acid'
p2963
I2311
sS'odd'
p2964
I621
sS'depression'
p2965
I313
sS'sweats'
p2966
I3239
sS'giving'
p2967
I1689
sS'squeeze'
p2968
I2394
sS'slight'
p2969
I208
sS'exacerbate'
p2970
I3445
sS'find'
p2971
I687
sS'cell'
p2972
I1819
sS'acronym'
p2973
I3268
sS'waiting'
p2974
I614
sS'anywhere'
p2975
I2927
sS'ceclor'
p2976
I2930
sS'ct.'
p2977
I2898
sS'exercise'
p2978
I2391
sS'refilled'
p2979
I3129
sS'body'
p2980
I154
sS'completion'
p2981
I2040
sS'led'
p2982
I822
sS'degree'
p2983
I1034
sS'sinuses'
p2984
I2458
sS'taste_loss'
p2985
I3796
sS'prescribe'
p2986
I841
sS'youngest'
p2987
I1003
sS'trapezius'
p2988
I1696
sS'let'
p2989
I2941
sS'healing'
p2990
I2617
sS'others'
p2991
I951
sS'safer'
p2992
I2127
sS'extreme'
p2993
I3455
sS'ago.had'
p2994
I1235
sS'39'
p2995
I1033
sS'38'
p2996
I1204
sS'pressure'
p2997
I1380
sS'33'
p2998
I1883
sS'involved'
p2999
I459
sS'31'
p3000
I2705
sS'30'
p3001
I955
sS'37'
p3002
I3520
sS'36'
p3003
I1219
sS'35'
p3004
I2094
sS'leaving'
p3005
I1575
sS'paranoid'
p3006
I3088
sS'products'
p3007
I2136
sS'purmycin'
p3008
I3421
sS'opinion'
p3009
I1501
sS'gene'
p3010
I999
sS'makes'
p3011
I2254
sS'involves'
p3012
I3547
sS'thats'
p3013
I1985
sS'formulated'
p3014
I3566
sS'recurrant'
p3015
I3472
sS'test?no'
p3016
I595
sS'manage'
p3017
I2109
sS'apprehensive'
p3018
I2970
sS'private'
p3019
I2904
sS'bend'
p3020
I1969
sS'eased'
p3021
I3606
sS'austria'
p3022
I2971
sS'wit'
p3023
I2441
sS'sugar'
p3024
I2015
sS'x10days'
p3025
I1244
sS'standing'
p3026
I1013
sS'albuterol'
p3027
I2112
sS'use'
p3028
I65
sS'from'
p3029
I217
sS'thirsty'
p3030
I2514
sS'gerd'
p3031
I2251
sS'&'
p3032
I220
sS'maybe'
p3033
I2236
sS'next'
p3034
I814
sS'few'
p3035
I233
sS'doubt'
p3036
I851
sS'examination'
p3037
I562
sS'means'
p3038
I2346
sS'self-isolated'
p3039
I1860
sS'oily'
p3040
I3675
sS'midday'
p3041
I588
sS'touched'
p3042
I2773
sS'1/3'
p3043
I1934
sS'eruptions'
p3044
I3561
sS'started'
p3045
I150
sS'becomes'
p3046
I3097
sS'inclined'
p3047
I2818
sS'ebastel'
p3048
I3757
sS'about'
p3049
I25
sS'infection'
p3050
I361
sS'weened'
p3051
I2544
sS'sore'
p3052
I270
sS'carrying'
p3053
I2968
sS'clarythmomycin'
p3054
I3383
sS'baby'
p3055
I1495
sS'central'
p3056
I3499
sS'excellent'
p3057
I3582
sS'animals'
p3058
I948
sS'ace'
p3059
I3443
sS'f'
p3060
I196
sS'this'
p3061
I5
sS'pnemonoia'
p3062
I1816
sS'ride'
p3063
I3185
sS'oct'
p3064
I1621
sS'cummneutrophils-70'
p3065
I1918
sS'thin'
p3066
I1933
sS'island'
p3067
I2089
sS'rehabilitation'
p3068
I3257
sS'itchiness'
p3069
I325
sS'control'
p3070
I2147
sS'1/10day'
p3071
I1952
sS'reeds'
p3072
I2498
sS'snacks'
p3073
I2359
sS'process'
p3074
I2618
sS'lock'
p3075
I3281
sS'proportions'
p3076
I3572
sS'pieces'
p3077
I2308
sS'high'
p3078
I160
sS'mixture'
p3079
I1685
sS'pulling'
p3080
I2938
sS'something'
p3081
I442
sS'tab'
p3082
I3683
sS'bones'
p3083
I1009
sS'voice'
p3084
I3183
sS'weaken'
p3085
I2125
sS'sir'
p3086
I1811
sS'united'
p3087
I2280
sS'syndrome'
p3088
I689
sS'sit'
p3089
I3130
sS'scarring'
p3090
I2995
sS'six'
p3091
I1502
sS'thoart.last'
p3092
I2873
sS'dependent'
p3093
I2177
sS'run'
p3094
I2076
sS'animal'
p3095
I3073
sS'wolf'
p3096
I2642
sS'toddler'
p3097
I1441
sS'panic'
p3098
I3650
sS'sin'
p3099
I1167
sS'greatly'
p3100
I2822
sS'watery'
p3101
I396
sS'yellowish'
p3102
I2677
sS'prolia'
p3103
I2697
sS'attend'
p3104
I839
sS'summers'
p3105
I2657
sS'peeling'
p3106
I2084
sS'frizium'
p3107
I3438
sS'spiriva'
p3108
I2733
sS'masks'
p3109
I879
sS'discomfort'
p3110
I3166
sS'productive'
p3111
I2943
sS'fatigue'
p3112
I152
sS'multiplication'
p3113
I2676
sS'spelling'
p3114
I889
sS'realized'
p3115
I75
sS'dialysis'
p3116
I2608
sS'22nd'
p3117
I3030
sS'light'
p3118
I1186
sS'eosinothioia'
p3119
I1120
sS'vaccination'
p3120
I2633
sS'healthcare'
p3121
I2119
sS'addiction'
p3122
I2150
sS'counted'
p3123
I2329
sS'3/4'
p3124
I1977
sS'barky'
p3125
I2784
sS'tuberculosis'
p3126
I467
sS'vaccinated'
p3127
I2224
sS'move'
p3128
I2895
sS'byproducts'
p3129
I3074
sS'persisting.do'
p3130
I1136
sS'130'
p3131
I2016
sS'including'
p3132
I2071
sS'looks'
p3133
I1741
sS'cruise'
p3134
I3733
sS'aortic'
p3135
I3045
sS'budecort'
p3136
I1512
sS'earlier'
p3137
I1650
sS'perfect'
p3138
I2372
sS'complicate'
p3139
I3685
sS'lc'
p3140
I516
sS'till'
p3141
I1508
sS'frightening'
p3142
I2696
sS'll'
p3143
I1983
sS'initial'
p3144
I3402
sS'degrees'
p3145
I2095
sS'asking'
p3146
I2878
sS'travelers'
p3147
I3729
sS'decaf'
p3148
I1535
sS'2014'
p3149
I1838
sS'2017'
p3150
I3033
sS'2011'
p3151
I1542
sS'2010'
p3152
I1620
sS'2013'
p3153
I2058
sS',3'
p3154
I1629
sS'burping'
p3155
I2235
sS'dae'
p3156
I2500
sS'101-102'
p3157
I1865
sS'greater'
p3158
I3600
sS'repercussions'
p3159
I3642
sS'practice'
p3160
I1232
sS'flew'
p3161
I214
sS'staan'
p3162
I2508
sS'resolve'
p3163
I2848
sS'flem'
p3164
I1403
sS'hands'
p3165
I1833
sS'front'
p3166
I2859
sS'helpdistressed'
p3167
I3379
sS'terrible'
p3168
I2596
sS'day'
p3169
I3
sS'preschool'
p3170
I2591
sS'rhineton'
p3171
I1360
sS'february'
p3172
I648
sS'elementary/middle'
p3173
I2396
sS'airports'
p3174
I267
sS'contagious'
p3175
I2053
sS'university'
p3176
I1039
sS'countries'
p3177
I2665
sS'cider'
p3178
I3748
sS'sneezed'
p3179
I232
sS'high_blood_pressure'
p3180
I3822
sS'weather'
p3181
I2894
sS'transmitted'
p3182
I1924
sS'truth'
p3183
I479
sS'phlyemy'
p3184
I2052
sS'accompanied'
p3185
I131
sS'experienced'
p3186
I1928
sS'mets'
p3187
I1006
sS'tension'
p3188
I2994
sS'doing'
p3189
I545
sS'pleurisy'
p3190
I1389
sS'temp.'
p3191
I1623
sS'related'
p3192
I994
sS'british'
p3193
I3173
sS'deficiency'
p3194
I2545
sS'frequency'
p3195
I1523
sS'irritation'
p3196
I988
sS'82'
p3197
I1071
sS'our'
p3198
I540
sS'80'
p3199
I1564
sS'81'
p3200
I1847
sS'86'
p3201
I3340
sS'84'
p3202
I2008
sS'out'
p3203
I338
sS"'"
p3204
I101
sS'twice'
p3205
I1515
sS'valve'
p3206
I3344
sS'plaquenil'
p3207
I2606
sS'chaitanya'
p3208
I1050
sS'asthmatic'
p3209
I735
sS'rec'
p3210
I696
sS'postpone'
p3211
I2699
sS'cause'
p3212
I933
sS'red'
p3213
I397
sS'shut'
p3214
I2454
sS'fluctuates'
p3215
I3339
sS'recommendations'
p3216
I2118
sS'sustainable'
p3217
I1469
sS'completely'
p3218
I408
sS'canker'
p3219
I3081
sS'zirtec'
p3220
I419
sS'early'
p3221
I3347
sS'bwi'
p3222
I2087
sS'comeback'
p3223
I2061
sS'bleed'
p3224
I2555
sS'scary'
p3225
I1637
sS'interaction'
p3226
I647
sS'cured'
p3227
I1790
sS'could'
p3228
I236
sS'hes'
p3229
I3730
sS'itchy/burning'
p3230
I3720
sS'times'
p3231
I125
sS'reccursive'
p3232
I383
sS'chicken'
p3233
I2316
sS'keel'
p3234
I2504
sS'projectile'
p3235
I2586
sS'wrist'
p3236
I3722
sS'chills'
p3237
I1349
sS'south'
p3238
I1369
sS'blown'
p3239
I3456
sS'student'
p3240
I3465
sS'cardiac'
p3241
I1072
sS'congo'
p3242
I597
sS'drinker'
p3243
I1532
sS'precisely'
p3244
I3514
sS'marrow'
p3245
I3602
sS'cramping'
p3246
I3245
sS'ryles'
p3247
I2430
sS'trachea'
p3248
I3048
sS'festival'
p3249
I243
sS'guys'
p3250
I3023
sS'system'
p3251
I307
sS'realistically'
p3252
I2090
sS'typcially'
p3253
I3300
sS'their'
p3254
I804
sS'attack'
p3255
I738
sS'fells'
p3256
I3126
sS'99.8'
p3257
I1692
sS'?!'
p3258
I3649
sS'chemotherapy'
p3259
I2824
sS'weight.mid'
p3260
I619
sS'tourists'
p3261
I3175
sS'painful'
p3262
I226
sS'inner'
p3263
I3180
sS'ex-ray'
p3264
I2442
sS'accompany'
p3265
I483
sS'empaped'
p3266
I3162
sS'completed'
p3267
I1775
sS'exactly'
p3268
I3273
sS'unaffected'
p3269
I2864
sS'rsa'
p3270
I3522
sS'tues.'
p3271
I3666
sS'foamy'
p3272
I1664
sS'havea'
p3273
I3423
sS'seretide'
p3274
I3753
sS'antibodics'
p3275
I3689
sS'cultures'
p3276
I1118
sS'rsv'
p3277
I770
sS'herself'
p3278
I1339
sS'haven'
p3279
I705
sS'coughed'
p3280
I8
sS'neck'
p3281
I2522
sS'875-125mg'
p3282
I3335
sS'unexpectedly'
p3283
I3122
sS'colleagues'
p3284
I2138
sS'walked'
p3285
I3769
sS'isolation'
p3286
I1651
sS'aspiration'
p3287
I2645
sS'bed'
p3288
I1090
sS'trach'
p3289
I3703
sS'patients'
p3290
I198
sS'individual'
p3291
I849
sS'probiotics'
p3292
I1560
sS'ventilation'
p3293
I2000
sS'sr'
p3294
I2005
sS'visited'
p3295
I755
sS'negatively'
p3296
I871
sS'referral'
p3297
I1861
sS'drunk'
p3298
I2451
sS'march.not'
p3299
I3343
sS'false'
p3300
I2948
sS'lightly'
p3301
I3517
sS'comfortable'
p3302
I2813
sS'38.3'
p3303
I3424
sS'38.2'
p3304
I3620
sS'38.7'
p3305
I2667
sS'unlikely'
p3306
I1876
sS'have'
p3307
I28
sS';'
p3308
I3320
sS'throat'
p3309
I213
sS'apparently'
p3310
I1677
sS'linked'
p3311
I2461
sS'spirometer'
p3312
I2828
sS'afraid'
p3313
I484
sS'min'
p3314
I27
sS'allergies'
p3315
I433
sS'able'
p3316
I439
sS'mid'
p3317
I897
sS'incentive'
p3318
I2827
sS'mix'
p3319
I1585
sS'concerns'
p3320
I1835
sS'which'
p3321
I421
sS'pretracheal'
p3322
I1910
sS'pharmacist'
p3323
I608
sS'soap'
p3324
I2790
sS'pus'
p3325
I3603
sS'soar'
p3326
I751
sS'02'
p3327
I2830
sS'tonight'
p3328
I3773
sS'hazed'
p3329
I1408
sS'unless'
p3330
I2277
sS'prednisone'
p3331
I3083
sS'combat'
p3332
I3105
sS'centre'
p3333
I3194
sS'who'
p3334
I868
sS'solid_organ_transplants'
p3335
I3818
sS'moths'
p3336
I2418
sS'emphasyma'
p3337
I1674
sS'prisoner'
p3338
I2882
sS'highschool'
p3339
I2197
sS'alarmed'
p3340
I1154
sS'malviya'
p3341
I974
sS'why'
p3342
I349
sS'avelox'
p3343
I2963
sS'mucos'
p3344
I3299
sS'visiting'
p3345
I2890
sS'stronger'
p3346
I1757
sS'disease'
p3347
I1111
sS'brought'
p3348
I3250
sS'face'
p3349
I2925
sS'looked'
p3350
I859
sS'pristant'
p3351
I1498
sS'construction'
p3352
I3772
sS'reinfected'
p3353
I2534
sS'typical'
p3354
I3184
sS'normally'
p3355
I2476
sS'fact'
p3356
I3053
sS'brozedex'
p3357
I3756
sS'steroide'
p3358
I3759
sS'impression'
p3359
I1418
sS'emerging'
p3360
I3176
sS'corvid19'
p3361
I2459
sS'super'
p3362
I2304
sS'kg'
p3363
I2260
sS'mycoplasmic'
p3364
I2957
sS'chances'
p3365
I463
sS'lightheaded/feeling'
p3366
I2694
sS'anyway'
p3367
I1596
sS'watch'
p3368
I2718
sS'bring'
p3369
I3243
sS'fear'
p3370
I1421
sS'staff'
p3371
I2214
sS'bisto'
p3372
I487
sS'z-pak'
p3373
I2707
sS'apollo'
p3374
I2031
sS'based'
p3375
I474
sS'singulair'
p3376
I3218
sS'rash'
p3377
I2525
sS'should'
p3378
I39
sS'jan'
p3379
I1459
sS'blocker'
p3380
I3611
sS'employee'
p3381
I3728
sS'homeopathy'
p3382
I3574
sS'local'
p3383
I3251
sS'interested'
p3384
I2585
sS'hope'
p3385
I2257
sS'regularly'
p3386
I2399
sS'insight'
p3387
I3091
sS'exceptional'
p3388
I805
sS'lobe'
p3389
I1896
sS'strands'
p3390
I1742
sS'michigan'
p3391
I1779
sS'overall'
p3392
I1749
sS'arrhythmia'
p3393
I2752
sS'mgs'
p3394
I910
sS'joint'
p3395
I3353
sS'ones'
p3396
I763
sS'reusable'
p3397
I3765
sS'sinus'
p3398
I709
sS'procedures'
p3399
I475
sS'areas'
p3400
I803
sS'following'
p3401
I2670
sS'temp'
p3402
I159
sS'tobacco'
p3403
I2623
sS'ended'
p3404
I1305
sS'conditions'
p3405
I2457
sS'quarantine'
p3406
I1147
sS'married'
p3407
I2711
sS'stuff'
p3408
I2266
sS'she'
p3409
I298
sS'queries'
p3410
I1022
sS'tightening'
p3411
I2344
sS'fernchizee'
p3412
I2030
sS'polycystic'
p3413
I3527
sS'madam'
p3414
I972
sS'btw'
p3415
I1764
sS'temporarily'
p3416
I3386
sS'expel'
p3417
I3125
sS'acquired'
p3418
I359
sS'tossing'
p3419
I2766
sS'national'
p3420
I253
sS'humans'
p3421
I3369
sS'53years'
p3422
I2192
sS'officials'
p3423
I3136
sS'desperate'
p3424
I3199
sS'36.5'
p3425
I3312
sS'paracetamol'
p3426
I2453
sS'vanaf'
p3427
I2495
sS'puts'
p3428
I2486
sS'pattern'
p3429
I1888
sS'levoquin'
p3430
I2763
sS'3mm'
p3431
I3541
sS'xray'
p3432
I478
sS'state'
p3433
I541
sS'difficulties'
p3434
I3206
sS'strepsils'
p3435
I2919
sS'horrible'
p3436
I1253
sS'mono'
p3437
I1719
sS'kidneys'
p3438
I3298
sS'bought'
p3439
I1796
sS'alveolar'
p3440
I3220
sS'ability'
p3441
I812
sS'jharkhand'
p3442
I2024
sS'deliver'
p3443
I2746
sS'vitamin'
p3444
I2721
sS'148/84'
p3445
I1625
sS'advisability'
p3446
I3313
sS'entering'
p3447
I3516
sS'sitting'
p3448
I2420
sS'vte'
p3449
I2481
sS'problem'
p3450
I559
sS'planned'
p3451
I1735
sS'taking'
p3452
I801
sS'spray'
p3453
I1516
sS'drug'
p3454
I2176
sS'hiked'
p3455
I3624
sS'april'
p3456
I429
sS'involve'
p3457
I3453
sS'a.m.'
p3458
I923
sS'nebulizer'
p3459
I3691
sS'agent'
p3460
I3793
sS'puff'
p3461
I1514
sS'swallow'
p3462
I2411
sS're-infected'
p3463
I1483
sS'remicade'
p3464
I1114
sS'adjusted'
p3465
I1470
sS'illnesses'
p3466
I2729
sS'wall'
p3467
I1898
sS'ca'
p3468
I589
sS'milligram'
p3469
I3575
sS'ac'
p3470
I2276
sS'walk'
p3471
I847
sS'doxycycline'
p3472
I1553
sS'duolin'
p3473
I3440
sS'plegm'
p3474
I659
sS'laugh'
p3475
I388
sS'news'
p3476
I2484
sS'sickle_cell_disease'
p3477
I3817
sS'pulmonary'
p3478
I1109
sS'withdrawl'
p3479
I794
sS'quit'
p3480
I342
sS'inhale'
p3481
I3286
sS'outsides'
p3482
I2552
sS'tread'
p3483
I2230
sS'addition'
p3484
I874
sS'exhausted'
p3485
I1630
sS'genetic'
p3486
I3276
sS'drank'
p3487
I2285
sS'slowly'
p3488
I1979
sS'treat'
p3489
I372
sS'besig'
p3490
I1278
sS'summary'
p3491
I3470
sS'isolating'
p3492
I222
sS'field'
p3493
I1413
sS'shoulders'
p3494
I2926
sS'controlled'
p3495
I3205
sS'received'
p3496
I3008
sS'am'
p3497
I205
sS'sufficient'
p3498
I1923
sS'cruddy'
p3499
I3128
sS'twinge'
p3500
I3670
sS'crappy'
p3501
I2798
sS'250mg'
p3502
I3336
sS'finished'
p3503
I956
sS'ao'
p3504
I1972
sS'windpipe'
p3505
I3392
sS'covered'
p3506
I2931
sS'smoking'
p3507
I343
sS'general'
p3508
I3056
sS'joint/muscle'
p3509
I3330
sS'volunteer'
p3510
I2886
sS'novel'
p3511
I2666
sS'mega'
p3512
I3005
sS'fearful'
p3513
I3415
sS'dr.here'
p3514
I2568
sS'diarrea'
p3515
I3669
sS'harder'
p3516
I2296
sS'as'
p3517
I142
sS'will'
p3518
I304
sS'seftum500mg'
p3519
I3569
sS'clots'
p3520
I3661
sS'instantly'
p3521
I2523
sS'crohns'
p3522
I1113
sS'groin'
p3523
I3563
sS'elbow'
p3524
I3721
sS'dad'
p3525
I2780
sS'layer'
p3526
I1662
sS've'
p3527
I679
sS'helper'
p3528
I1288
sS'almost'
p3529
I401
sS'tonic'
p3530
I3404
sS'draining'
p3531
I578
sS'copd'
p3532
I1643
sS'partner'
p3533
I761
sS'wks'
p3534
I1634
sS'sits'
p3535
I1089
sS'present'
p3536
I3751
sS'blount'
p3537
I3629
sS'emycin'
p3538
I3108
sS'parotid'
p3539
I2683
sS'began'
p3540
I3003
sS'progressing'
p3541
I3481
sS'coronary'
p3542
I3809
sS'member'
p3543
I3209
sS'strange'
p3544
I1312
sS'inch'
p3545
I1940
sS'outbreak'
p3546
I2466
sS'gets'
p3547
I1088
sS'shesaid'
p3548
I1546
sS'difficult'
p3549
I185
sS'spell'
p3550
I3634
sS'6/22/18'
p3551
I1391
sS'slightly'
p3552
I2047
sS'bali'
p3553
I2629
sS'sinusitis'
p3554
I2893
sS'19:30'
p3555
I3059
sS'drink'
p3556
I1533
sS'upon'
p3557
I2774
sS'effect'
p3558
I807
sS'ertapenem'
p3559
I903
sS'hasnt'
p3560
I1613
sS'post-symptom'
p3561
I1480
sS'spitting'
p3562
I2073
sS'sisters'
p3563
I1000
sS'frequently'
p3564
I674
sS'toll'
p3565
I1773
sS'nightime'
p3566
I385
sS'francisco'
p3567
I2279
sS'diabetes'
p3568
I662
sS'2/15'
p3569
I3120
sS'clv'
p3570
I3535
sS'off'
p3571
I946
sS'center'
p3572
I984
sS'neuropathy'
p3573
I690
sS'i'
p3574
I7
sS'colour'
p3575
I3657
sS'indonesia'
p3576
I3022
sS'well'
p3577
I143
sS'fighting'
p3578
I1362
sS'lesions'
p3579
I3674
sS'thought'
p3580
I71
sS'46'
p3581
I3702
sS'steriod'
p3582
I3494
sS'baltimore'
p3583
I2086
sS'position'
p3584
I2421
sS'muscle'
p3585
I1350
sS'usual'
p3586
I2233
sS'bending'
p3587
I2865
sS'stores'
p3588
I2263
sS'barking'
p3589
I1426
sS'heavily'
p3590
I580
sS'increasingly'
p3591
I2754
sS'proximity'
p3592
I3358
sS'purifier'
p3593
I2273
sS'obtain'
p3594
I3020
sS'23-year-old'
p3595
I310
sS'dose'
p3596
I791
sS'clinic'
p3597
I482
sS'40'
p3598
I2193
sS'narcotics'
p3599
I863
sS'ampicillin'
p3600
I2576
sS'gynae'
p3601
I2789
sS'rescue'
p3602
I3495
sS'begin'
p3603
I2817
sS'16/17'
p3604
I2325
sS'cigarette'
p3605
I2616
sS'rapid'
p3606
I2611
sS'wed'
p3607
I600
sS'cage'
p3608
I3510
sS'headed'
p3609
I2074
sS'3.3'
p3610
I3429
sS'transparent'
p3611
I400
sS'simple'
p3612
I3115
sS'5dags'
p3613
I1248
sS'verbouings'
p3614
I1279
sS'wet'
p3615
I1988
sS'lymphocytes'
p3616
I1125
sS'98.5'
p3617
I3289
sS'warrant'
p3618
I3598
sS'smart'
p3619
I1435
sS'crummy'
p3620
I3055
sS'tests'
p3621
I476
sS'definitive'
p3622
I2572
sS'myth'
p3623
I2650
sS'government'
p3624
I2115
sS'cpap'
p3625
I3538
sS'98.6'
p3626
I2802
sS'munich'
p3627
I2976
sS'increases'
p3628
I2949
sS'zimbabwe'
p3629
I2891
sS'five'
p3630
I434
sS'know'
p3631
I50
sS'chronic_kidney_disease'
p3632
I3816
sS'press'
p3633
I2638
sS'immediately'
p3634
I768
sS'2nd'
p3635
I2491
sS'ranitidine'
p3636
I2345
sS'loss'
p3637
I606
sS'dubai'
p3638
I1858
sS'necessary'
p3639
I1527
sS'like'
p3640
I211
sS'lost'
p3641
I700
sS'ga.'
p3642
I3198
sS'bulge'
p3643
I1939
sS'admitted'
p3644
I572
sS'backpain'
p3645
I1801
sS'fianc\xc3\xa9'
p3646
I88
sS'thinners'
p3647
I1538
sS'become'
p3648
I1639
sS'works'
p3649
I425
sS'replacement'
p3650
I3485
sS'larthargic'
p3651
I2902
sS'because'
p3652
I329
sS'mersa'
p3653
I1490
sS'scared'
p3654
I1437
sS'patented'
p3655
I3021
sS'nagar'
p3656
I975
sS'hair'
p3657
I1930
sS'infiltrated'
p3658
I1536
sS'mozambique'
p3659
I3734
sS'48-50'
p3660
I773
sS'home'
p3661
I215
sS'stuffy'
p3662
I1151
sS'happens'
p3663
I3792
sS'gelede'
p3664
I2501
sS'lead'
p3665
I2178
sS'avoid'
p3666
I200
sS'lean'
p3667
I1496
sS'doen'
p3668
I2510
sS'does'
p3669
I127
sS'alberton'
p3670
I1220
sS'assuming'
p3671
I1581
sS'?'
p3672
I41
sS'hose'
p3673
I2725
sS'tokd'
p3674
I3777
sS'x5days'
p3675
I1240
sS'reaching'
p3676
I725
sS'dangling'
p3677
I1745
sS'happening'
p3678
I3232
sS'gautrain'
p3679
I1267
sS'doctors'
p3680
I977
sS'although'
p3681
I121
sS'myprodol'
p3682
I2673
sS'stage'
p3683
I1464
sS'sister'
p3684
I990
sS'rare'
p3685
I712
sS'testosterone'
p3686
I828
sS'world'
p3687
I3579
sS'getting'
p3688
I1371
sS'125mg'
p3689
I3161
sS'pillow'
p3690
I3539
sS'sweat'
p3691
I1352
sS'tongue'
p3692
I2290
sS'swimming'
p3693
I1706
sS'own'
p3694
I2883
sS'final'
p3695
I3544
sS'miscarried'
p3696
I1202
sS'previously'
p3697
I1789
sS'fro'
p3698
I3304
sS'obliterated'
p3699
I809
sS'chronic'
p3700
I316
sS'doesnt'
p3701
I2637
sS'lung'
p3702
I574
sS'tiny'
p3703
I2456
sS'female'
p3704
I667
sS'pnemonia'
p3705
I1453
sS'consecutively'
p3706
I1961
sS'antacids'
p3707
I2323
sS'!?'
p3708
I144
sS'ailment'
p3709
I2002
sS'doc.im'
p3710
I1786
sS'uncontrollably'
p3711
I91
sS'additional'
p3712
I917
sS'rushed'
p3713
I1456
sS'vegetables'
p3714
I2373
sS'outline'
p3715
I2541
sS'spots'
p3716
I1936
sS'noticed'
p3717
I1040
sS'trigger'
p3718
I1693
sS'obviouly'
p3719
I892
sS'bronchials'
p3720
I1670
sS'powdered'
p3721
I3567
sS'sexuales'
p3722
I1166
sS'yrs'
p3723
I678
sS'fundoplication'
p3724
I2425
sS'preauricular'
p3725
I2679
sS'function'
p3726
I2734
sS'nauseaus'
p3727
I1297
sS'hx'
p3728
I1002
sS'certificate'
p3729
I3718
sS'response.is'
p3730
I1258
sS'hr'
p3731
I1990
sS'bus'
p3732
I2264
sS'brand'
p3733
I1799
sS'receptors'
p3734
I3615
sS'but'
p3735
I74
sS'hk'
p3736
I1368
sS'slipped'
p3737
I3121
sS'hi'
p3738
I241
sS'migraines'
p3739
I3151
sS'trimester'
p3740
I2116
sS'ear'
p3741
I1357
sS'eat'
p3742
I1065
sS'he'
p3743
I97
sS'count'
p3744
I2327
sS'made'
p3745
I553
sS'brochites'
p3746
I3778
sS'beds'
p3747
I1804
sS'evident'
p3748
I785
sS'whitish'
p3749
I2755
sS'whether'
p3750
I1263
sS'dangerous'
p3751
I1652
sS'cells'
p3752
I3221
sS'hosting'
p3753
I3142
sS'placed'
p3754
I1655
sS'below'
p3755
I157
sS'\xc2\xb0'
p3756
I2688
sS'c/o'
p3757
I1748
sS'atheist'
p3758
I2174
sS'contraer'
p3759
I1183
sS'\xc2\xbf'
p3760
I1181
sS'minutes'
p3761
I2237
sS'menstruation'
p3762
I2861
sS'3-4'
p3763
I1704
sS'aeruginosa'
p3764
I3479
sS'reservations'
p3765
I1778
sS'sexually'
p3766
I2843
sS'midline'
p3767
I3503
sS'lasted'
p3768
I2362
sS'beats'
p3769
I1959
sS'moxifloxacin'
p3770
I2964
sS'pits'
p3771
I3564
sS'inf'
p3772
I1599
sS'hospitalization'
p3773
I1724
sS'effected'
p3774
I1614
sS'compared'
p3775
I2950
sS"'ll"
p3776
I1873
sS'doxiflow'
p3777
I2841
sS'incredible'
p3778
I3388
sS'boop'
p3779
I3269
sS'47'
p3780
I2594
sS'45'
p3781
I3397
sS'42'
p3782
I1428
sS'hpv'
p3783
I2063
sS'virtual'
p3784
I1868
sS'lately'
p3785
I2103
sS'drugs'
p3786
I749
sS'other'
p3787
I629
sS'mass_gathering'
p3788
I3826
sS'witness'
p3789
I2189
sS'sick'
p3790
I1145
sS'suppress'
p3791
I123
sS'montek'
p3792
I515
sS'mnths'
p3793
I857
sS'contacting'
p3794
I1438
sS'althrocin'
p3795
I3570
sS'junk'
p3796
I2375
sS'wouldbe'
p3797
I1472
sS'kinds'
p3798
I2714
sS'monday'
p3799
I1287
sS'hemoptasis'
p3800
I1236
sS'feelings'
p3801
I2111
sS'june'
p3802
I954
sS'stay'
p3803
I285
sS'nasale'
p3804
I2506
sS'chance'
p3805
I1875
sS'kinda'
p3806
I2051
sS'ideals'
p3807
I3256
sS'friends'
p3808
I2190
sS'refzil'
p3809
I3442
sS'exposure'
p3810
I877
sS'3rd'
p3811
I611
sS'petusses'
p3812
I2573
sS'azithromysin'
p3813
I2708
sS'cpt'
p3814
I218
sS'persistent'
p3815
I331
sS'covid-19'
p3816
I199
sS'paranoia'
p3817
I2517
sS'collasped'
p3818
I573
sS'portion'
p3819
I2186
sS'emerg'
p3820
I844
sS'diagnosis'
p3821
I1105
sS'searched'
p3822
I3265
sS'15-20'
p3823
I268
sS'understand'
p3824
I3072
sS'lymphocytes-28'
p3825
I1919
sS'sulci'
p3826
I3507
sS'8th'
p3827
I1863
s.